	.syntax unified
	.cpu cortex-m0
	.fpu softvfp
	.eabi_attribute 20, 1
	.eabi_attribute 21, 1
	.eabi_attribute 23, 3
	.eabi_attribute 24, 1
	.eabi_attribute 25, 1
	.eabi_attribute 26, 1
	.eabi_attribute 30, 6
	.eabi_attribute 34, 0
	.eabi_attribute 18, 4
	.thumb
	.syntax unified
	.file	"rand.c"
	.text
.Ltext0:
	.section	.text.rd_thread_stack_ptr,"ax",%progbits
	.align	2
	.code	16
	.thumb_func
	.type	rd_thread_stack_ptr, %function
rd_thread_stack_ptr:
.LFB32:
	.file 1 "../../../cpu/arm/cortex-m0/cpu/cpu.h"
	.loc 1 111 0
	@ Naked Function: prologue and epilogue provided by programmer.
	@ args = 0, pretend = 0, frame = 0
	@ frame_needed = 1, uses_anonymous_args = 0
	.loc 1 112 0
	.syntax divided
@ 112 "../../../cpu/arm/cortex-m0/cpu/cpu.h" 1
	 mrs	r0, psp
 bx	lr

@ 0 "" 2
	.loc 1 114 0
	.thumb
	.syntax unified
	nop
	movs	r0, r3
.LFE32:
	.size	rd_thread_stack_ptr, .-rd_thread_stack_ptr
	.section	.text.rd_stack_ptr,"ax",%progbits
	.align	2
	.code	16
	.thumb_func
	.type	rd_stack_ptr, %function
rd_stack_ptr:
.LFB33:
	.loc 1 118 0
	@ Naked Function: prologue and epilogue provided by programmer.
	@ args = 0, pretend = 0, frame = 0
	@ frame_needed = 1, uses_anonymous_args = 0
	.loc 1 119 0
	.syntax divided
@ 119 "../../../cpu/arm/cortex-m0/cpu/cpu.h" 1
	 mrs 	r0, msp
 bx	lr

@ 0 "" 2
	.loc 1 121 0
	.thumb
	.syntax unified
	nop
	movs	r0, r3
.LFE33:
	.size	rd_stack_ptr, .-rd_stack_ptr
	.section	.data.rand_next,"aw",%progbits
	.align	2
	.type	rand_next, %object
	.size	rand_next, 4
rand_next:
	.word	-1600085856
	.section	.text.srand,"ax",%progbits
	.align	2
	.global	srand
	.code	16
	.thumb_func
	.type	srand, %function
srand:
.LFB34:
	.file 2 "/home/mike/Documents/GitHub/caribou-rtos/caribou/target/board/nucleo_f091/crossworks/../../../../src/lib/rand.c"
	.loc 2 26 0
	@ args = 0, pretend = 0, frame = 8
	@ frame_needed = 1, uses_anonymous_args = 0
	push	{r7, lr}
.LCFI0:
	sub	sp, sp, #8
.LCFI1:
	add	r7, sp, #0
.LCFI2:
	str	r0, [r7, #4]
	.loc 2 27 0
	ldr	r3, .L4
	ldr	r2, [r7, #4]
	str	r2, [r3]
	.loc 2 28 0
	nop
	mov	sp, r7
	add	sp, sp, #8
	@ sp needed
	pop	{r7, pc}
.L5:
	.align	2
.L4:
	.word	rand_next
.LFE34:
	.size	srand, .-srand
	.section	.text.rand,"ax",%progbits
	.align	2
	.global	rand
	.code	16
	.thumb_func
	.type	rand, %function
rand:
.LFB35:
	.loc 2 31 0
	@ args = 0, pretend = 0, frame = 0
	@ frame_needed = 1, uses_anonymous_args = 0
	push	{r7, lr}
.LCFI3:
	add	r7, sp, #0
.LCFI4:
	.loc 2 32 0
	ldr	r3, .L8
	ldr	r3, [r3]
	ldr	r2, .L8+4
	muls	r3, r2
	ldr	r2, .L8+8
	adds	r2, r3, r2
	ldr	r3, .L8
	str	r2, [r3]
	.loc 2 33 0
	ldr	r3, .L8
	ldr	r3, [r3]
	lsrs	r3, r3, #16
	lsls	r3, r3, #17
	lsrs	r3, r3, #17
	.loc 2 34 0
	movs	r0, r3
	mov	sp, r7
	@ sp needed
	pop	{r7, pc}
.L9:
	.align	2
.L8:
	.word	rand_next
	.word	1103515245
	.word	12345
.LFE35:
	.size	rand, .-rand
	.section	.debug_frame,"",%progbits
.Lframe0:
	.4byte	.LECIE0-.LSCIE0
.LSCIE0:
	.4byte	0xffffffff
	.byte	0x3
	.ascii	"\000"
	.uleb128 0x1
	.sleb128 -4
	.uleb128 0xe
	.byte	0xc
	.uleb128 0xd
	.uleb128 0
	.align	2
.LECIE0:
.LSFDE0:
	.4byte	.LEFDE0-.LASFDE0
.LASFDE0:
	.4byte	.Lframe0
	.4byte	.LFB32
	.4byte	.LFE32-.LFB32
	.align	2
.LEFDE0:
.LSFDE2:
	.4byte	.LEFDE2-.LASFDE2
.LASFDE2:
	.4byte	.Lframe0
	.4byte	.LFB33
	.4byte	.LFE33-.LFB33
	.align	2
.LEFDE2:
.LSFDE4:
	.4byte	.LEFDE4-.LASFDE4
.LASFDE4:
	.4byte	.Lframe0
	.4byte	.LFB34
	.4byte	.LFE34-.LFB34
	.byte	0x4
	.4byte	.LCFI0-.LFB34
	.byte	0xe
	.uleb128 0x8
	.byte	0x87
	.uleb128 0x2
	.byte	0x8e
	.uleb128 0x1
	.byte	0x4
	.4byte	.LCFI1-.LCFI0
	.byte	0xe
	.uleb128 0x10
	.byte	0x4
	.4byte	.LCFI2-.LCFI1
	.byte	0xd
	.uleb128 0x7
	.align	2
.LEFDE4:
.LSFDE6:
	.4byte	.LEFDE6-.LASFDE6
.LASFDE6:
	.4byte	.Lframe0
	.4byte	.LFB35
	.4byte	.LFE35-.LFB35
	.byte	0x4
	.4byte	.LCFI3-.LFB35
	.byte	0xe
	.uleb128 0x8
	.byte	0x87
	.uleb128 0x2
	.byte	0x8e
	.uleb128 0x1
	.byte	0x4
	.4byte	.LCFI4-.LCFI3
	.byte	0xd
	.uleb128 0x7
	.align	2
.LEFDE6:
	.text
.Letext0:
	.file 3 "/usr/share/crossworks_for_arm_3.7/include/stdint.h"