	.syntax unified
	.cpu cortex-m0
	.fpu softvfp
	.eabi_attribute 20, 1
	.eabi_attribute 21, 1
	.eabi_attribute 23, 3
	.eabi_attribute 24, 1
	.eabi_attribute 25, 1
	.eabi_attribute 26, 1
	.eabi_attribute 30, 6
	.eabi_attribute 34, 0
	.eabi_attribute 18, 4
	.thumb
	.syntax unified
	.file	"uart.c"
	.text
.Ltext0:
	.global	uart_mutex
	.section	.bss.uart_mutex,"aw",%nobits
	.align	2
	.type	uart_mutex, %object
	.size	uart_mutex, 8
uart_mutex:
	.space	8
	.section	.text.caribou_device_of,"ax",%progbits
	.align	2
	.global	caribou_device_of
	.code	16
	.thumb_func
	.type	caribou_device_of, %function
caribou_device_of:
.LFB32:
	.file 1 "/home/mike/Documents/GitHub/caribou-rtos/caribou/target/board/nucleo_f091/crossworks/../../../../src/dev/uart.c"
	.loc 1 33 0
	@ args = 0, pretend = 0, frame = 16
	@ frame_needed = 1, uses_anonymous_args = 0
	push	{r7, lr}
.LCFI0:
	sub	sp, sp, #16
.LCFI1:
	add	r7, sp, #0
.LCFI2:
	str	r0, [r7, #4]
	.loc 1 34 0
	ldr	r2, [r7, #4]
	movs	r3, r2
	lsls	r3, r3, #1
	adds	r3, r3, r2
	lsls	r3, r3, #3
	ldr	r2, .L3
	adds	r3, r3, r2
	str	r3, [r7, #12]
	.loc 1 35 0
	ldr	r3, [r7, #12]
	ldr	r3, [r3]
	str	r3, [r7, #8]
	.loc 1 36 0
	ldr	r3, [r7, #8]
	.loc 1 37 0
	movs	r0, r3
	mov	sp, r7
	add	sp, sp, #16
	@ sp needed
	pop	{r7, pc}
.L4:
	.align	2
.L3:
	.word	_stdio_
.LFE32:
	.size	caribou_device_of, .-caribou_device_of
	.section	.text.caribou_uart_open,"ax",%progbits
	.align	2
	.global	caribou_uart_open
	.code	16
	.thumb_func
	.type	caribou_uart_open, %function
caribou_uart_open:
.LFB33:
	.loc 1 45 0
	@ args = 0, pretend = 0, frame = 24
	@ frame_needed = 1, uses_anonymous_args = 0
	push	{r7, lr}
.LCFI3:
	sub	sp, sp, #24
.LCFI4:
	add	r7, sp, #0
.LCFI5:
	str	r0, [r7, #4]
	str	r1, [r7]
	.loc 1 47 0
	ldr	r3, .L13
	movs	r2, #0
	str	r2, [r3]
	.loc 1 48 0
	ldr	r3, .L13+4
	movs	r1, #0
	movs	r0, r3
	bl	caribou_mutex_lock
	.loc 1 49 0
	ldr	r3, [r7, #4]
	str	r3, [r7, #20]
	ldr	r3, [r7, #20]
	cmp	r3, #0
	blt	.L6
.LBB2:
	.loc 1 51 0
	ldr	r2, [r7, #20]
	movs	r3, r2
	lsls	r3, r3, #1
	adds	r3, r3, r2
	lsls	r3, r3, #3
	ldr	r2, .L13+8
	adds	r3, r3, r2
	str	r3, [r7, #16]
	.loc 1 52 0
	ldr	r3, [r7, #16]
	ldr	r3, [r3]
	str	r3, [r7, #12]
	.loc 1 53 0
	ldr	r3, [r7, #12]
	movs	r0, r3
	bl	chip_uart_rx_queue
	movs	r3, r0
	movs	r0, r3
	bl	caribou_bytequeue_free
	.loc 1 54 0
	ldr	r3, [r7, #12]
	movs	r0, r3
	bl	chip_uart_tx_queue
	movs	r3, r0
	movs	r0, r3
	bl	caribou_bytequeue_free
	.loc 1 55 0
	ldr	r3, [r7, #12]
	movs	r1, #0
	movs	r0, r3
	bl	chip_uart_set_rx_queue
	.loc 1 56 0
	ldr	r3, [r7, #12]
	movs	r1, #0
	movs	r0, r3
	bl	chip_uart_set_tx_queue
	.loc 1 57 0
	bl	caribou_uart_queue_rx_sz
	movs	r3, r0
	uxth	r3, r3
	movs	r0, r3
	bl	caribou_bytequeue_new
	movs	r2, r0
	ldr	r3, [r7, #12]
	movs	r1, r2
	movs	r0, r3
	bl	chip_uart_set_rx_queue
	subs	r3, r0, #0
	beq	.L7
	.loc 1 59 0
	bl	caribou_uart_queue_tx_sz
	movs	r3, r0
	uxth	r3, r3
	movs	r0, r3
	bl	caribou_bytequeue_new
	movs	r2, r0
	ldr	r3, [r7, #12]
	movs	r1, r2
	movs	r0, r3
	bl	chip_uart_set_tx_queue
	subs	r3, r0, #0
	beq	.L8
	.loc 1 61 0
	ldr	r3, [r7, #12]
	movs	r1, #0
	movs	r0, r3
	bl	chip_uart_set_config
	.loc 1 62 0
	ldr	r3, [r7, #12]
	movs	r0, r3
	bl	chip_uart_status
	movs	r2, r0
	movs	r3, #4
	orrs	r2, r3
	ldr	r3, [r7, #12]
	movs	r1, r2
	movs	r0, r3
	bl	chip_uart_set_status
	b	.L6
.L8:
	.loc 1 66 0
	ldr	r3, [r7, #12]
	movs	r0, r3
	bl	chip_uart_rx_queue
	movs	r3, r0
	movs	r0, r3
	bl	caribou_bytequeue_free
	.loc 1 67 0
	ldr	r3, .L13
	movs	r2, #12
	str	r2, [r3]
	b	.L6
.L7:
	.loc 1 72 0
	ldr	r3, .L13
	movs	r2, #12
	str	r2, [r3]
.L6:
.LBE2:
	.loc 1 75 0
	ldr	r3, .L13+4
	movs	r0, r3
	bl	caribou_mutex_unlock
	.loc 1 76 0
	ldr	r3, [r7, #20]
	cmp	r3, #0
	blt	.L10
	.loc 1 76 0 is_stmt 0 discriminator 1
	ldr	r3, [r7]
	cmp	r3, #0
	beq	.L10
	.loc 1 78 0 is_stmt 1
	ldr	r2, [r7]
	ldr	r3, [r7, #20]
	movs	r1, r2
	movs	r0, r3
	bl	caribou_uart_set_config
	subs	r3, r0, #0
	bge	.L10
	.loc 1 80 0
	ldr	r3, [r7, #20]
	movs	r0, r3
	bl	caribou_uart_close
	.loc 1 81 0
	movs	r3, #1
	rsbs	r3, r3, #0
	str	r3, [r7, #20]
.L10:
	.loc 1 84 0
	ldr	r3, [r7, #20]
	movs	r0, r3
	bl	chip_uart_open
	movs	r2, r0
	ldr	r3, [r7, #20]
	cmp	r2, r3
	beq	.L11
	.loc 1 86 0
	ldr	r3, [r7, #20]
	movs	r0, r3
	bl	caribou_uart_close
.L11:
	.loc 1 88 0
	ldr	r3, [r7, #20]
	.loc 1 89 0
	movs	r0, r3
	mov	sp, r7
	add	sp, sp, #24
	@ sp needed
	pop	{r7, pc}
.L14:
	.align	2
.L13:
	.word	__errno
	.word	uart_mutex
	.word	_stdio_
.LFE33:
	.size	caribou_uart_open, .-caribou_uart_open
	.section	.text.caribou_uart_close,"ax",%progbits
	.align	2
	.global	caribou_uart_close
	.code	16
	.thumb_func
	.type	caribou_uart_close, %function
caribou_uart_close:
.LFB34:
	.loc 1 97 0
	@ args = 0, pretend = 0, frame = 24
	@ frame_needed = 1, uses_anonymous_args = 0
	push	{r7, lr}
.LCFI6:
	sub	sp, sp, #24
.LCFI7:
	add	r7, sp, #0
.LCFI8:
	str	r0, [r7, #4]
	.loc 1 98 0
	movs	r3, #0
	str	r3, [r7, #20]
	.loc 1 99 0
	ldr	r3, .L17
	movs	r2, #0
	str	r2, [r3]
	.loc 1 100 0
	ldr	r3, .L17+4
	movs	r1, #0
	movs	r0, r3
	bl	caribou_mutex_lock
	.loc 1 101 0
	ldr	r2, [r7, #4]
	movs	r3, r2
	lsls	r3, r3, #1
	adds	r3, r3, r2
	lsls	r3, r3, #3
	ldr	r2, .L17+8
	adds	r3, r3, r2
	str	r3, [r7, #16]
	.loc 1 102 0
	ldr	r3, [r7, #16]
	ldr	r3, [r3]
	str	r3, [r7, #12]
	.loc 1 103 0
	ldr	r3, [r7, #12]
	movs	r0, r3
	bl	chip_uart_int_disable
	.loc 1 104 0
	ldr	r3, [r7, #12]
	movs	r0, r3
	bl	chip_uart_interrupt_vector
	movs	r3, r0
	movs	r0, r3
	bl	chip_vector_disable
	.loc 1 105 0
	ldr	r3, [r7, #12]
	movs	r0, r3
	bl	chip_uart_rx_queue
	movs	r3, r0
	movs	r0, r3
	bl	caribou_bytequeue_free
	.loc 1 106 0
	ldr	r3, [r7, #12]
	movs	r0, r3
	bl	chip_uart_tx_queue
	movs	r3, r0
	movs	r0, r3
	bl	caribou_bytequeue_free
	.loc 1 107 0
	ldr	r3, [r7, #12]
	movs	r1, #0
	movs	r0, r3
	bl	chip_uart_set_rx_queue
	.loc 1 108 0
	ldr	r3, [r7, #12]
	movs	r1, #0
	movs	r0, r3
	bl	chip_uart_set_tx_queue
	.loc 1 109 0
	ldr	r3, [r7, #12]
	movs	r0, r3
	bl	chip_uart_status
	movs	r2, r0
	movs	r3, #4
	bics	r2, r3
	ldr	r3, [r7, #12]
	movs	r1, r2
	movs	r0, r3
	bl	chip_uart_set_status
	.loc 1 110 0
	ldr	r3, .L17+4
	movs	r0, r3
	bl	caribou_mutex_unlock
	.loc 1 111 0
	ldr	r3, [r7, #20]
	.loc 1 112 0
	movs	r0, r3
	mov	sp, r7
	add	sp, sp, #24
	@ sp needed
	pop	{r7, pc}
.L18:
	.align	2
.L17:
	.word	__errno
	.word	uart_mutex
	.word	_stdio_
.LFE34:
	.size	caribou_uart_close, .-caribou_uart_close
	.section	.text.caribou_uart_init_config,"ax",%progbits
	.align	2
	.global	caribou_uart_init_config
	.code	16
	.thumb_func
	.type	caribou_uart_init_config, %function
caribou_uart_init_config:
.LFB35:
	.loc 1 118 0
	@ args = 0, pretend = 0, frame = 8
	@ frame_needed = 1, uses_anonymous_args = 0
	push	{r7, lr}
.LCFI9:
	sub	sp, sp, #8
.LCFI10:
	add	r7, sp, #0
.LCFI11:
	str	r0, [r7, #4]
	.loc 1 119 0
	ldr	r3, [r7, #4]
	cmp	r3, #0
	beq	.L21
	.loc 1 121 0
	ldr	r3, [r7, #4]
	movs	r2, #12
	movs	r1, #0
	movs	r0, r3
	bl	memset
	.loc 1 122 0
	ldr	r3, [r7, #4]
	movs	r2, #150
	lsls	r2, r2, #6
	str	r2, [r3]
	.loc 1 123 0
	ldr	r3, [r7, #4]
	movs	r2, #8
	strb	r2, [r3, #4]
	.loc 1 124 0
	ldr	r3, [r7, #4]
	movs	r2, #1
	strb	r2, [r3, #5]
	.loc 1 125 0
	ldr	r3, [r7, #4]
	movs	r2, #0
	strb	r2, [r3, #6]
	.loc 1 126 0
	ldr	r3, [r7, #4]
	movs	r2, #0
	strb	r2, [r3, #7]
.L21:
	.loc 1 128 0
	nop
	mov	sp, r7
	add	sp, sp, #8
	@ sp needed
	pop	{r7, pc}
.LFE35:
	.size	caribou_uart_init_config, .-caribou_uart_init_config
	.section	.text.caribou_uart_set_config,"ax",%progbits
	.align	2
	.global	caribou_uart_set_config
	.code	16
	.thumb_func
	.type	caribou_uart_set_config, %function
caribou_uart_set_config:
.LFB36:
	.loc 1 136 0
	@ args = 0, pretend = 0, frame = 16
	@ frame_needed = 1, uses_anonymous_args = 0
	push	{r7, lr}
.LCFI12:
	sub	sp, sp, #16
.LCFI13:
	add	r7, sp, #0
.LCFI14:
	str	r0, [r7, #4]
	str	r1, [r7]
	.loc 1 137 0
	ldr	r3, [r7, #4]
	movs	r0, r3
	bl	caribou_device_of
	movs	r2, r0
	ldr	r3, [r7]
	movs	r1, r3
	movs	r0, r2
	bl	chip_uart_set_config
	movs	r3, r0
	str	r3, [r7, #12]
	.loc 1 138 0
	ldr	r3, [r7, #12]
	.loc 1 139 0
	movs	r0, r3
	mov	sp, r7
	add	sp, sp, #16
	@ sp needed
	pop	{r7, pc}
.LFE36:
	.size	caribou_uart_set_config, .-caribou_uart_set_config
	.section	.text.caribou_uart_queue_tx_sz,"ax",%progbits
	.align	2
	.global	caribou_uart_queue_tx_sz
	.code	16
	.thumb_func
	.type	caribou_uart_queue_tx_sz, %function
caribou_uart_queue_tx_sz:
.LFB37:
	.loc 1 145 0
	@ args = 0, pretend = 0, frame = 0
	@ frame_needed = 1, uses_anonymous_args = 0
	push	{r7, lr}
.LCFI15:
	add	r7, sp, #0
.LCFI16:
	.loc 1 146 0
	movs	r3, #32
	.loc 1 147 0
	movs	r0, r3
	mov	sp, r7
	@ sp needed
	pop	{r7, pc}
.LFE37:
	.size	caribou_uart_queue_tx_sz, .-caribou_uart_queue_tx_sz
	.section	.text.caribou_uart_queue_rx_sz,"ax",%progbits
	.align	2
	.global	caribou_uart_queue_rx_sz
	.code	16
	.thumb_func
	.type	caribou_uart_queue_rx_sz, %function
caribou_uart_queue_rx_sz:
.LFB38:
	.loc 1 153 0
	@ args = 0, pretend = 0, frame = 0
	@ frame_needed = 1, uses_anonymous_args = 0
	push	{r7, lr}
.LCFI17:
	add	r7, sp, #0
.LCFI18:
	.loc 1 154 0
	movs	r3, #128
	.loc 1 155 0
	movs	r0, r3
	mov	sp, r7
	@ sp needed
	pop	{r7, pc}
.LFE38:
	.size	caribou_uart_queue_rx_sz, .-caribou_uart_queue_rx_sz
	.section	.text.caribou_uart_rx_queue,"ax",%progbits
	.align	2
	.global	caribou_uart_rx_queue
	.code	16
	.thumb_func
	.type	caribou_uart_rx_queue, %function
caribou_uart_rx_queue:
.LFB39:
	.loc 1 158 0
	@ args = 0, pretend = 0, frame = 8
	@ frame_needed = 1, uses_anonymous_args = 0
	push	{r7, lr}
.LCFI19:
	sub	sp, sp, #8
.LCFI20:
	add	r7, sp, #0
.LCFI21:
	str	r0, [r7, #4]
	.loc 1 159 0
	ldr	r3, [r7, #4]
	movs	r0, r3
	bl	caribou_device_of
	movs	r3, r0
	movs	r0, r3
	bl	chip_uart_rx_queue
	movs	r3, r0
	.loc 1 160 0
	movs	r0, r3
	mov	sp, r7
	add	sp, sp, #8
	@ sp needed
	pop	{r7, pc}
.LFE39:
	.size	caribou_uart_rx_queue, .-caribou_uart_rx_queue
	.section	.text.caribou_uart_tx_queue,"ax",%progbits
	.align	2
	.global	caribou_uart_tx_queue
	.code	16
	.thumb_func
	.type	caribou_uart_tx_queue, %function
caribou_uart_tx_queue:
.LFB40:
	.loc 1 163 0
	@ args = 0, pretend = 0, frame = 8
	@ frame_needed = 1, uses_anonymous_args = 0
	push	{r7, lr}
.LCFI22:
	sub	sp, sp, #8
.LCFI23:
	add	r7, sp, #0
.LCFI24:
	str	r0, [r7, #4]
	.loc 1 164 0
	ldr	r3, [r7, #4]
	movs	r0, r3
	bl	caribou_device_of
	movs	r3, r0
	movs	r0, r3
	bl	chip_uart_tx_queue
	movs	r3, r0
	.loc 1 165 0
	movs	r0, r3
	mov	sp, r7
	add	sp, sp, #8
	@ sp needed
	pop	{r7, pc}
.LFE40:
	.size	caribou_uart_tx_queue, .-caribou_uart_tx_queue
	.section	.text.caribou_uart_int_enable,"ax",%progbits
	.align	2
	.global	caribou_uart_int_enable
	.code	16
	.thumb_func
	.type	caribou_uart_int_enable, %function
caribou_uart_int_enable:
.LFB41:
	.loc 1 173 0
	@ args = 0, pretend = 0, frame = 16
	@ frame_needed = 1, uses_anonymous_args = 0
	push	{r7, lr}
.LCFI25:
	sub	sp, sp, #16
.LCFI26:
	add	r7, sp, #0
.LCFI27:
	str	r0, [r7, #4]
	.loc 1 174 0
	ldr	r3, [r7, #4]
	movs	r0, r3
	bl	caribou_device_of
	movs	r3, r0
	movs	r0, r3
	bl	chip_uart_int_enable
	movs	r3, r0
	str	r3, [r7, #12]
	.loc 1 175 0
	ldr	r3, [r7, #12]
	.loc 1 176 0
	movs	r0, r3
	mov	sp, r7
	add	sp, sp, #16
	@ sp needed
	pop	{r7, pc}
.LFE41:
	.size	caribou_uart_int_enable, .-caribou_uart_int_enable
	.section	.text.caribou_uart_int_disable,"ax",%progbits
	.align	2
	.global	caribou_uart_int_disable
	.code	16
	.thumb_func
	.type	caribou_uart_int_disable, %function
caribou_uart_int_disable:
.LFB42:
	.loc 1 184 0
	@ args = 0, pretend = 0, frame = 16
	@ frame_needed = 1, uses_anonymous_args = 0
	push	{r7, lr}
.LCFI28:
	sub	sp, sp, #16
.LCFI29:
	add	r7, sp, #0
.LCFI30:
	str	r0, [r7, #4]
	.loc 1 185 0
	ldr	r3, [r7, #4]
	movs	r0, r3
	bl	caribou_device_of
	movs	r3, r0
	movs	r0, r3
	bl	chip_uart_int_disable
	movs	r3, r0
	str	r3, [r7, #12]
	.loc 1 186 0
	ldr	r3, [r7, #12]
	.loc 1 187 0
	movs	r0, r3
	mov	sp, r7
	add	sp, sp, #16
	@ sp needed
	pop	{r7, pc}
.LFE42:
	.size	caribou_uart_int_disable, .-caribou_uart_int_disable
	.section	.text.caribou_uart_int_enabled,"ax",%progbits
	.align	2
	.global	caribou_uart_int_enabled
	.code	16
	.thumb_func
	.type	caribou_uart_int_enabled, %function
caribou_uart_int_enabled:
.LFB43:
	.loc 1 195 0
	@ args = 0, pretend = 0, frame = 16
	@ frame_needed = 1, uses_anonymous_args = 0
	push	{r7, lr}
.LCFI31:
	sub	sp, sp, #16
.LCFI32:
	add	r7, sp, #0
.LCFI33:
	str	r0, [r7, #4]
	.loc 1 196 0
	ldr	r3, [r7, #4]
	movs	r0, r3
	bl	caribou_device_of
	movs	r3, r0
	movs	r0, r3
	bl	chip_uart_int_enabled
	movs	r3, r0
	str	r3, [r7, #12]
	.loc 1 197 0
	ldr	r3, [r7, #12]
	.loc 1 198 0
	movs	r0, r3
	mov	sp, r7
	add	sp, sp, #16
	@ sp needed
	pop	{r7, pc}
.LFE43:
	.size	caribou_uart_int_enabled, .-caribou_uart_int_enabled
	.section	.text.caribou_uart_int_set,"ax",%progbits
	.align	2
	.global	caribou_uart_int_set
	.code	16
	.thumb_func
	.type	caribou_uart_int_set, %function
caribou_uart_int_set:
.LFB44:
	.loc 1 206 0
	@ args = 0, pretend = 0, frame = 16
	@ frame_needed = 1, uses_anonymous_args = 0
	push	{r7, lr}
.LCFI34:
	sub	sp, sp, #16
.LCFI35:
	add	r7, sp, #0
.LCFI36:
	str	r0, [r7, #4]
	str	r1, [r7]
	.loc 1 207 0
	ldr	r3, [r7, #4]
	movs	r0, r3
	bl	caribou_device_of
	movs	r2, r0
	ldr	r3, [r7]
	movs	r1, r3
	movs	r0, r2
	bl	chip_uart_int_set
	movs	r3, r0
	str	r3, [r7, #12]
	.loc 1 208 0
	ldr	r3, [r7, #12]
	.loc 1 209 0
	movs	r0, r3
	mov	sp, r7
	add	sp, sp, #16
	@ sp needed
	pop	{r7, pc}
.LFE44:
	.size	caribou_uart_int_set, .-caribou_uart_int_set
	.section	.text.caribou_uart_tx_data,"ax",%progbits
	.align	2
	.global	caribou_uart_tx_data
	.code	16
	.thumb_func
	.type	caribou_uart_tx_data, %function
caribou_uart_tx_data:
.LFB45:
	.loc 1 216 0
	@ args = 0, pretend = 0, frame = 8
	@ frame_needed = 1, uses_anonymous_args = 0
	push	{r7, lr}
.LCFI37:
	sub	sp, sp, #8
.LCFI38:
	add	r7, sp, #0
.LCFI39:
	str	r0, [r7, #4]
	str	r1, [r7]
	.loc 1 217 0
	ldr	r3, [r7, #4]
	movs	r0, r3
	bl	caribou_device_of
	movs	r2, r0
	ldr	r3, [r7]
	movs	r1, r3
	movs	r0, r2
	bl	chip_uart_tx_data
	.loc 1 218 0
	nop
	movs	r0, r3
	mov	sp, r7
	add	sp, sp, #8
	@ sp needed
	pop	{r7, pc}
.LFE45:
	.size	caribou_uart_tx_data, .-caribou_uart_tx_data
	.section	.text.caribou_uart_rx_data,"ax",%progbits
	.align	2
	.global	caribou_uart_rx_data
	.code	16
	.thumb_func
	.type	caribou_uart_rx_data, %function
caribou_uart_rx_data:
.LFB46:
	.loc 1 224 0
	@ args = 0, pretend = 0, frame = 8
	@ frame_needed = 1, uses_anonymous_args = 0
	push	{r7, lr}
.LCFI40:
	sub	sp, sp, #8
.LCFI41:
	add	r7, sp, #0
.LCFI42:
	str	r0, [r7, #4]
	.loc 1 225 0
	ldr	r3, [r7, #4]
	movs	r0, r3
	bl	caribou_device_of
	movs	r3, r0
	movs	r0, r3
	bl	chip_uart_rx_data
	movs	r3, r0
	.loc 1 226 0
	movs	r0, r3
	mov	sp, r7
	add	sp, sp, #8
	@ sp needed
	pop	{r7, pc}
.LFE46:
	.size	caribou_uart_rx_data, .-caribou_uart_rx_data
	.section	.text.caribou_uart_tx_busy,"ax",%progbits
	.align	2
	.global	caribou_uart_tx_busy
	.code	16
	.thumb_func
	.type	caribou_uart_tx_busy, %function
caribou_uart_tx_busy:
.LFB47:
	.loc 1 232 0
	@ args = 0, pretend = 0, frame = 8
	@ frame_needed = 1, uses_anonymous_args = 0
	push	{r7, lr}
.LCFI43:
	sub	sp, sp, #8
.LCFI44:
	add	r7, sp, #0
.LCFI45:
	str	r0, [r7, #4]
	.loc 1 233 0
	ldr	r3, [r7, #4]
	movs	r0, r3
	bl	caribou_device_of
	movs	r3, r0
	movs	r0, r3
	bl	chip_uart_tx_busy
	movs	r3, r0
	uxtb	r3, r3
	.loc 1 234 0
	movs	r0, r3
	mov	sp, r7
	add	sp, sp, #8
	@ sp needed
	pop	{r7, pc}
.LFE47:
	.size	caribou_uart_tx_busy, .-caribou_uart_tx_busy
	.section	.text.caribou_uart_tx_ready,"ax",%progbits
	.align	2
	.global	caribou_uart_tx_ready
	.code	16
	.thumb_func
	.type	caribou_uart_tx_ready, %function
caribou_uart_tx_ready:
.LFB48:
	.loc 1 240 0
	@ args = 0, pretend = 0, frame = 8
	@ frame_needed = 1, uses_anonymous_args = 0
	push	{r7, lr}
.LCFI46:
	sub	sp, sp, #8
.LCFI47:
	add	r7, sp, #0
.LCFI48:
	str	r0, [r7, #4]
	.loc 1 241 0
	ldr	r3, [r7, #4]
	movs	r0, r3
	bl	caribou_device_of
	movs	r3, r0
	movs	r0, r3
	bl	chip_uart_tx_ready
	movs	r3, r0
	.loc 1 242 0
	movs	r0, r3
	mov	sp, r7
	add	sp, sp, #8
	@ sp needed
	pop	{r7, pc}
.LFE48:
	.size	caribou_uart_tx_ready, .-caribou_uart_tx_ready
	.section	.text.caribou_uart_rx_ready,"ax",%progbits
	.align	2
	.global	caribou_uart_rx_ready
	.code	16
	.thumb_func
	.type	caribou_uart_rx_ready, %function
caribou_uart_rx_ready:
.LFB49:
	.loc 1 248 0
	@ args = 0, pretend = 0, frame = 8
	@ frame_needed = 1, uses_anonymous_args = 0
	push	{r7, lr}
.LCFI49:
	sub	sp, sp, #8
.LCFI50:
	add	r7, sp, #0
.LCFI51:
	str	r0, [r7, #4]
	.loc 1 249 0
	ldr	r3, [r7, #4]
	movs	r0, r3
	bl	caribou_device_of
	movs	r3, r0
	movs	r0, r3
	bl	chip_uart_rx_ready
	movs	r3, r0
	.loc 1 250 0
	movs	r0, r3
	mov	sp, r7
	add	sp, sp, #8
	@ sp needed
	pop	{r7, pc}
.LFE49:
	.size	caribou_uart_rx_ready, .-caribou_uart_rx_ready
	.section	.text.caribou_uart_enable,"ax",%progbits
	.align	2
	.global	caribou_uart_enable
	.code	16
	.thumb_func
	.type	caribou_uart_enable, %function
caribou_uart_enable:
.LFB50:
	.loc 1 253 0
	@ args = 0, pretend = 0, frame = 8
	@ frame_needed = 1, uses_anonymous_args = 0
	push	{r7, lr}
.LCFI52:
	sub	sp, sp, #8
.LCFI53:
	add	r7, sp, #0
.LCFI54:
	str	r0, [r7, #4]
	.loc 1 254 0
	ldr	r3, [r7, #4]
	movs	r0, r3
	bl	caribou_device_of
	movs	r3, r0
	movs	r0, r3
	bl	chip_uart_enable
	.loc 1 255 0
	nop
	mov	sp, r7
	add	sp, sp, #8
	@ sp needed
	pop	{r7, pc}
.LFE50:
	.size	caribou_uart_enable, .-caribou_uart_enable
	.section	.text.caribou_uart_disable,"ax",%progbits
	.align	2
	.global	caribou_uart_disable
	.code	16
	.thumb_func
	.type	caribou_uart_disable, %function
caribou_uart_disable:
.LFB51:
	.loc 1 258 0
	@ args = 0, pretend = 0, frame = 8
	@ frame_needed = 1, uses_anonymous_args = 0
	push	{r7, lr}
.LCFI55:
	sub	sp, sp, #8
.LCFI56:
	add	r7, sp, #0
.LCFI57:
	str	r0, [r7, #4]
	.loc 1 259 0
	ldr	r3, [r7, #4]
	movs	r0, r3
	bl	caribou_device_of
	movs	r3, r0
	movs	r0, r3
	bl	chip_uart_disable
	.loc 1 260 0
	nop
	mov	sp, r7
	add	sp, sp, #8
	@ sp needed
	pop	{r7, pc}
.LFE51:
	.size	caribou_uart_disable, .-caribou_uart_disable
	.section	.text.caribou_uart_private_readfn,"ax",%progbits
	.align	2
	.global	caribou_uart_private_readfn
	.code	16
	.thumb_func
	.type	caribou_uart_private_readfn, %function
caribou_uart_private_readfn:
.LFB52:
	.loc 1 265 0
	@ args = 0, pretend = 0, frame = 32
	@ frame_needed = 1, uses_anonymous_args = 0
	push	{r4, r7, lr}
.LCFI58:
	sub	sp, sp, #36
.LCFI59:
	add	r7, sp, #0
.LCFI60:
	str	r0, [r7, #12]
	str	r1, [r7, #8]
	str	r2, [r7, #4]
	.loc 1 266 0
	movs	r3, #0
	str	r3, [r7, #28]
	.loc 1 267 0
	ldr	r3, [r7, #8]
	str	r3, [r7, #24]
	.loc 1 268 0
	b	.L52
.L54:
.LBB3:
	.loc 1 271 0
	ldr	r3, [r7, #12]
	ldr	r3, [r3]
	movs	r0, r3
	bl	chip_uart_rx_queue
	movs	r3, r0
	movs	r0, r3
	bl	caribou_bytequeue_get
	movs	r3, r0
	str	r3, [r7, #20]
	ldr	r3, [r7, #20]
	cmp	r3, #0
	blt	.L53
	.loc 1 273 0
	ldr	r3, [r7, #28]
	adds	r2, r3, #1
	str	r2, [r7, #28]
	movs	r2, r3
	ldr	r3, [r7, #24]
	adds	r3, r3, r2
	ldr	r2, [r7, #20]
	uxtb	r2, r2
	strb	r2, [r3]
	.loc 1 274 0
	ldr	r3, [r7, #12]
	ldr	r4, [r3]
	ldr	r3, [r7, #12]
	ldr	r3, [r3]
	movs	r0, r3
	bl	chip_uart_status
	movs	r2, r0
	movs	r3, #1
	orrs	r3, r2
	movs	r1, r3
	movs	r0, r4
	bl	chip_uart_set_status
	b	.L52
.L53:
	.loc 1 278 0
	bl	caribou_thread_yield
.L52:
.LBE3:
	.loc 1 268 0
	ldr	r2, [r7, #28]
	ldr	r3, [r7, #4]
	cmp	r2, r3
	blt	.L54
	.loc 1 281 0
	ldr	r3, [r7, #28]
	.loc 1 282 0
	movs	r0, r3
	mov	sp, r7
	add	sp, sp, #36
	@ sp needed
	pop	{r4, r7, pc}
.LFE52:
	.size	caribou_uart_private_readfn, .-caribou_uart_private_readfn
	.section	.text.caribou_uart_private_writefn,"ax",%progbits
	.align	2
	.global	caribou_uart_private_writefn
	.code	16
	.thumb_func
	.type	caribou_uart_private_writefn, %function
caribou_uart_private_writefn:
.LFB53:
	.loc 1 286 0
	@ args = 0, pretend = 0, frame = 24
	@ frame_needed = 1, uses_anonymous_args = 0
	push	{r7, lr}
.LCFI61:
	sub	sp, sp, #24
.LCFI62:
	add	r7, sp, #0
.LCFI63:
	str	r0, [r7, #12]
	str	r1, [r7, #8]
	str	r2, [r7, #4]
	.loc 1 287 0
	movs	r3, #0
	str	r3, [r7, #20]
	.loc 1 288 0
	ldr	r3, [r7, #8]
	str	r3, [r7, #16]
	.loc 1 289 0
	b	.L57
.L60:
	.loc 1 292 0
	ldr	r3, [r7, #12]
	ldr	r3, [r3]
	movs	r0, r3
	bl	chip_uart_tx_queue
	ldr	r3, [r7, #20]
	ldr	r2, [r7, #16]
	adds	r3, r2, r3
	ldrb	r3, [r3]
	movs	r1, r3
	bl	caribou_bytequeue_put
	subs	r3, r0, #0
	beq	.L58
	.loc 1 294 0
	ldr	r3, [r7, #20]
	adds	r3, r3, #1
	str	r3, [r7, #20]
	b	.L59
.L58:
	.loc 1 298 0
	bl	caribou_thread_yield
.L59:
	.loc 1 301 0
	ldr	r3, [r7, #12]
	ldr	r3, [r3]
	movs	r0, r3
	bl	chip_uart_tx_start
.L57:
	.loc 1 289 0
	ldr	r2, [r7, #20]
	ldr	r3, [r7, #4]
	cmp	r2, r3
	blt	.L60
	.loc 1 303 0
	ldr	r3, [r7, #20]
	.loc 1 305 0
	movs	r0, r3
	mov	sp, r7
	add	sp, sp, #24
	@ sp needed
	pop	{r7, pc}
.LFE53:
	.size	caribou_uart_private_writefn, .-caribou_uart_private_writefn
	.section	.text.caribou_uart_private_flush,"ax",%progbits
	.align	2
	.global	caribou_uart_private_flush
	.code	16
	.thumb_func
	.type	caribou_uart_private_flush, %function
caribou_uart_private_flush:
.LFB54:
	.loc 1 308 0
	@ args = 0, pretend = 0, frame = 16
	@ frame_needed = 1, uses_anonymous_args = 0
	push	{r7, lr}
.LCFI64:
	sub	sp, sp, #16
.LCFI65:
	add	r7, sp, #0
.LCFI66:
	str	r0, [r7, #4]
	.loc 1 309 0
	ldr	r3, [r7, #4]
	movs	r0, r3
	bl	_fd
	movs	r3, r0
	str	r3, [r7, #12]
	.loc 1 310 0
	b	.L63
.L64:
	.loc 1 312 0
	ldr	r3, [r7, #4]
	ldr	r3, [r3]
	movs	r0, r3
	bl	chip_uart_tx_start
	.loc 1 313 0
	bl	caribou_thread_yield
.L63:
	.loc 1 310 0
	ldr	r3, [r7, #12]
	movs	r0, r3
	bl	caribou_uart_tx_queue
	movs	r3, r0
	movs	r0, r3
	bl	caribou_bytequeue_empty
	subs	r3, r0, #0
	beq	.L64
.LBB4:
	.loc 1 315 0
	b	.L65
.L66:
	.loc 1 317 0
	bl	caribou_thread_yield
.L65:
	.loc 1 315 0
	ldr	r3, [r7, #4]
	ldr	r3, [r3]
	movs	r0, r3
	bl	chip_uart_tx_busy
	subs	r3, r0, #0
	bne	.L66
.LBE4:
	.loc 1 319 0
	movs	r3, #0
	.loc 1 320 0
	movs	r0, r3
	mov	sp, r7
	add	sp, sp, #16
	@ sp needed
	pop	{r7, pc}
.LFE54:
	.size	caribou_uart_private_flush, .-caribou_uart_private_flush
	.section	.text.caribou_uart_private_readqueuefn,"ax",%progbits
	.align	2
	.global	caribou_uart_private_readqueuefn
	.code	16
	.thumb_func
	.type	caribou_uart_private_readqueuefn, %function
caribou_uart_private_readqueuefn:
.LFB55:
	.loc 1 324 0
	@ args = 0, pretend = 0, frame = 8
	@ frame_needed = 1, uses_anonymous_args = 0
	push	{r7, lr}
.LCFI67:
	sub	sp, sp, #8
.LCFI68:
	add	r7, sp, #0
.LCFI69:
	str	r0, [r7, #4]
	.loc 1 325 0
	ldr	r3, [r7, #4]
	ldr	r3, [r3]
	movs	r0, r3
	bl	chip_uart_rx_queue
	movs	r3, r0
	movs	r0, r3
	bl	caribou_bytequeue_level
	movs	r3, r0
	.loc 1 326 0
	movs	r0, r3
	mov	sp, r7
	add	sp, sp, #8
	@ sp needed
	pop	{r7, pc}
.LFE55:
	.size	caribou_uart_private_readqueuefn, .-caribou_uart_private_readqueuefn
	.section	.text.caribou_uart_private_writequeuefn,"ax",%progbits
	.align	2
	.global	caribou_uart_private_writequeuefn
	.code	16
	.thumb_func
	.type	caribou_uart_private_writequeuefn, %function
caribou_uart_private_writequeuefn:
.LFB56:
	.loc 1 330 0
	@ args = 0, pretend = 0, frame = 8
	@ frame_needed = 1, uses_anonymous_args = 0
	push	{r7, lr}
.LCFI70:
	sub	sp, sp, #8
.LCFI71:
	add	r7, sp, #0
.LCFI72:
	str	r0, [r7, #4]
	.loc 1 331 0
	ldr	r3, [r7, #4]
	ldr	r3, [r3]
	movs	r0, r3
	bl	chip_uart_tx_queue
	movs	r3, r0
	movs	r0, r3
	bl	caribou_bytequeue_level
	movs	r3, r0
	.loc 1 332 0
	movs	r0, r3
	mov	sp, r7
	add	sp, sp, #8
	@ sp needed
	pop	{r7, pc}
.LFE56:
	.size	caribou_uart_private_writequeuefn, .-caribou_uart_private_writequeuefn
	.section	.text.caribou_uart_private_statefn,"ax",%progbits
	.align	2
	.global	caribou_uart_private_statefn
	.code	16
	.thumb_func
	.type	caribou_uart_private_statefn, %function
caribou_uart_private_statefn:
.LFB57:
	.loc 1 336 0
	@ args = 0, pretend = 0, frame = 8
	@ frame_needed = 1, uses_anonymous_args = 0
	push	{r7, lr}
.LCFI73:
	sub	sp, sp, #8
.LCFI74:
	add	r7, sp, #0
.LCFI75:
	str	r0, [r7, #4]
	.loc 1 337 0
	ldr	r3, [r7, #4]
	ldr	r3, [r3]
	movs	r0, r3
	bl	chip_uart_status
	movs	r3, r0
	.loc 1 338 0
	movs	r0, r3
	mov	sp, r7
	add	sp, sp, #8
	@ sp needed
	pop	{r7, pc}
.LFE57:
	.size	caribou_uart_private_statefn, .-caribou_uart_private_statefn
	.section	.debug_frame,"",%progbits
.Lframe0:
	.4byte	.LECIE0-.LSCIE0
.LSCIE0:
	.4byte	0xffffffff
	.byte	0x3
	.ascii	"\000"
	.uleb128 0x1
	.sleb128 -4
	.uleb128 0xe
	.byte	0xc
	.uleb128 0xd
	.uleb128 0
	.align	2
.LECIE0:
.LSFDE0:
	.4byte	.LEFDE0-.LASFDE0
.LASFDE0:
	.4byte	.Lframe0
	.4byte	.LFB32
	.4byte	.LFE32-.LFB32
	.byte	0x4
	.4byte	.LCFI0-.LFB32
	.byte	0xe
	.uleb128 0x8
	.byte	0x87
	.uleb128 0x2
	.byte	0x8e
	.uleb128 0x1
	.byte	0x4
	.4byte	.LCFI1-.LCFI0
	.byte	0xe
	.uleb128 0x18
	.byte	0x4
	.4byte	.LCFI2-.LCFI1
	.byte	0xd
	.uleb128 0x7
	.align	2
.LEFDE0:
.LSFDE2:
	.4byte	.LEFDE2-.LASFDE2
.LASFDE2:
	.4byte	.Lframe0
	.4byte	.LFB33
	.4byte	.LFE33-.LFB33
	.byte	0x4
	.4byte	.LCFI3-.LFB33
	.byte	0xe
	.uleb128 0x8
	.byte	0x87
	.uleb128 0x2
	.byte	0x8e
	.uleb128 0x1
	.byte	0x4
	.4byte	.LCFI4-.LCFI3
	.byte	0xe
	.uleb128 0x20
	.byte	0x4
	.4byte	.LCFI5-.LCFI4
	.byte	0xd
	.uleb128 0x7
	.align	2
.LEFDE2:
.LSFDE4:
	.4byte	.LEFDE4-.LASFDE4
.LASFDE4:
	.4byte	.Lframe0
	.4byte	.LFB34
	.4byte	.LFE34-.LFB34
	.byte	0x4
	.4byte	.LCFI6-.LFB34
	.byte	0xe
	.uleb128 0x8
	.byte	0x87
	.uleb128 0x2
	.byte	0x8e
	.uleb128 0x1
	.byte	0x4
	.4byte	.LCFI7-.LCFI6
	.byte	0xe
	.uleb128 0x20
	.byte	0x4
	.4byte	.LCFI8-.LCFI7
	.byte	0xd
	.uleb128 0x7
	.align	2
.LEFDE4:
.LSFDE6:
	.4byte	.LEFDE6-.LASFDE6
.LASFDE6:
	.4byte	.Lframe0
	.4byte	.LFB35
	.4byte	.LFE35-.LFB35
	.byte	0x4
	.4byte	.LCFI9-.LFB35
	.byte	0xe
	.uleb128 0x8
	.byte	0x87
	.uleb128 0x2
	.byte	0x8e
	.uleb128 0x1
	.byte	0x4
	.4byte	.LCFI10-.LCFI9
	.byte	0xe
	.uleb128 0x10
	.byte	0x4
	.4byte	.LCFI11-.LCFI10
	.byte	0xd
	.uleb128 0x7
	.align	2
.LEFDE6:
.LSFDE8:
	.4byte	.LEFDE8-.LASFDE8
.LASFDE8:
	.4byte	.Lframe0
	.4byte	.LFB36
	.4byte	.LFE36-.LFB36
	.byte	0x4
	.4byte	.LCFI12-.LFB36
	.byte	0xe
	.uleb128 0x8
	.byte	0x87
	.uleb128 0x2
	.byte	0x8e
	.uleb128 0x1
	.byte	0x4
	.4byte	.LCFI13-.LCFI12
	.byte	0xe
	.uleb128 0x18
	.byte	0x4
	.4byte	.LCFI14-.LCFI13
	.byte	0xd
	.uleb128 0x7
	.align	2
.LEFDE8:
.LSFDE10:
	.4byte	.LEFDE10-.LASFDE10
.LASFDE10:
	.4byte	.Lframe0
	.4byte	.LFB37
	.4byte	.LFE37-.LFB37
	.byte	0x4
	.4byte	.LCFI15-.LFB37
	.byte	0xe
	.uleb128 0x8
	.byte	0x87
	.uleb128 0x2
	.byte	0x8e
	.uleb128 0x1
	.byte	0x4
	.4byte	.LCFI16-.LCFI15
	.byte	0xd
	.uleb128 0x7
	.align	2
.LEFDE10:
.LSFDE12:
	.4byte	.LEFDE12-.LASFDE12
.LASFDE12:
	.4byte	.Lframe0
	.4byte	.LFB38
	.4byte	.LFE38-.LFB38
	.byte	0x4
	.4byte	.LCFI17-.LFB38
	.byte	0xe
	.uleb128 0x8
	.byte	0x87
	.uleb128 0x2
	.byte	0x8e
	.uleb128 0x1
	.byte	0x4
	.4byte	.LCFI18-.LCFI17
	.byte	0xd
	.uleb128 0x7
	.align	2
.LEFDE12:
.LSFDE14:
	.4byte	.LEFDE14-.LASFDE14
.LASFDE14:
	.4byte	.Lframe0
	.4byte	.LFB39
	.4byte	.LFE39-.LFB39
	.byte	0x4
	.4byte	.LCFI19-.LFB39
	.byte	0xe
	.uleb128 0x8
	.byte	0x87
	.uleb128 0x2
	.byte	0x8e
	.uleb128 0x1
	.byte	0x4
	.4byte	.LCFI20-.LCFI19
	.byte	0xe
	.uleb128 0x10
	.byte	0x4
	.4byte	.LCFI21-.LCFI20
	.byte	0xd
	.uleb128 0x7
	.align	2
.LEFDE14:
.LSFDE16:
	.4byte	.LEFDE16-.LASFDE16
.LASFDE16:
	.4byte	.Lframe0
	.4byte	.LFB40
	.4byte	.LFE40-.LFB40
	.byte	0x4
	.4byte	.LCFI22-.LFB40
	.byte	0xe
	.uleb128 0x8
	.byte	0x87
	.uleb128 0x2
	.byte	0x8e
	.uleb128 0x1
	.byte	0x4
	.4byte	.LCFI23-.LCFI22
	.byte	0xe
	.uleb128 0x10
	.byte	0x4
	.4byte	.LCFI24-.LCFI23
	.byte	0xd
	.uleb128 0x7
	.align	2
.LEFDE16:
.LSFDE18:
	.4byte	.LEFDE18-.LASFDE18
.LASFDE18:
	.4byte	.Lframe0
	.4byte	.LFB41
	.4byte	.LFE41-.LFB41
	.byte	0x4
	.4byte	.LCFI25-.LFB41
	.byte	0xe
	.uleb128 0x8
	.byte	0x87
	.uleb128 0x2
	.byte	0x8e
	.uleb128 0x1
	.byte	0x4
	.4byte	.LCFI26-.LCFI25
	.byte	0xe
	.uleb128 0x18
	.byte	0x4
	.4byte	.LCFI27-.LCFI26
	.byte	0xd
	.uleb128 0x7
	.align	2
.LEFDE18:
.LSFDE20:
	.4byte	.LEFDE20-.LASFDE20
.LASFDE20:
	.4byte	.Lframe0
	.4byte	.LFB42
	.4byte	.LFE42-.LFB42
	.byte	0x4
	.4byte	.LCFI28-.LFB42
	.byte	0xe
	.uleb128 0x8
	.byte	0x87
	.uleb128 0x2
	.byte	0x8e
	.uleb128 0x1
	.byte	0x4
	.4byte	.LCFI29-.LCFI28
	.byte	0xe
	.uleb128 0x18
	.byte	0x4
	.4byte	.LCFI30-.LCFI29
	.byte	0xd
	.uleb128 0x7
	.align	2
.LEFDE20:
.LSFDE22:
	.4byte	.LEFDE22-.LASFDE22
.LASFDE22:
	.4byte	.Lframe0
	.4byte	.LFB43
	.4byte	.LFE43-.LFB43
	.byte	0x4
	.4byte	.LCFI31-.LFB43
	.byte	0xe
	.uleb128 0x8
	.byte	0x87
	.uleb128 0x2
	.byte	0x8e
	.uleb128 0x1
	.byte	0x4
	.4byte	.LCFI32-.LCFI31
	.byte	0xe
	.uleb128 0x18
	.byte	0x4
	.4byte	.LCFI33-.LCFI32
	.byte	0xd
	.uleb128 0x7
	.align	2
.LEFDE22:
.LSFDE24:
	.4byte	.LEFDE24-.LASFDE24
.LASFDE24:
	.4byte	.Lframe0
	.4byte	.LFB44
	.4byte	.LFE44-.LFB44
	.byte	0x4
	.4byte	.LCFI34-.LFB44
	.byte	0xe
	.uleb128 0x8
	.byte	0x87
	.uleb128 0x2
	.byte	0x8e
	.uleb128 0x1
	.byte	0x4
	.4byte	.LCFI35-.LCFI34
	.byte	0xe
	.uleb128 0x18
	.byte	0x4
	.4byte	.LCFI36-.LCFI35
	.byte	0xd
	.uleb128 0x7
	.align	2
.LEFDE24:
.LSFDE26:
	.4byte	.LEFDE26-.LASFDE26
.LASFDE26:
	.4byte	.Lframe0
	.4byte	.LFB45
	.4byte	.LFE45-.LFB45
	.byte	0x4
	.4byte	.LCFI37-.LFB45
	.byte	0xe
	.uleb128 0x8
	.byte	0x87
	.uleb128 0x2
	.byte	0x8e
	.uleb128 0x1
	.byte	0x4
	.4byte	.LCFI38-.LCFI37
	.byte	0xe
	.uleb128 0x10
	.byte	0x4
	.4byte	.LCFI39-.LCFI38
	.byte	0xd
	.uleb128 0x7
	.align	2
.LEFDE26:
.LSFDE28:
	.4byte	.LEFDE28-.LASFDE28
.LASFDE28:
	.4byte	.Lframe0
	.4byte	.LFB46
	.4byte	.LFE46-.LFB46
	.byte	0x4
	.4byte	.LCFI40-.LFB46
	.byte	0xe
	.uleb128 0x8
	.byte	0x87
	.uleb128 0x2
	.byte	0x8e
	.uleb128 0x1
	.byte	0x4
	.4byte	.LCFI41-.LCFI40
	.byte	0xe
	.uleb128 0x10
	.byte	0x4
	.4byte	.LCFI42-.LCFI41
	.byte	0xd
	.uleb128 0x7
	.align	2
.LEFDE28:
.LSFDE30:
	.4byte	.LEFDE30-.LASFDE30
.LASFDE30:
	.4byte	.Lframe0
	.4byte	.LFB47
	.4byte	.LFE47-.LFB47
	.byte	0x4
	.4byte	.LCFI43-.LFB47
	.byte	0xe
	.uleb128 0x8
	.byte	0x87
	.uleb128 0x2
	.byte	0x8e
	.uleb128 0x1
	.byte	0x4
	.4byte	.LCFI44-.LCFI43
	.byte	0xe
	.uleb128 0x10
	.byte	0x4
	.4byte	.LCFI45-.LCFI44
	.byte	0xd
	.uleb128 0x7
	.align	2
.LEFDE30:
.LSFDE32:
	.4byte	.LEFDE32-.LASFDE32
.LASFDE32:
	.4byte	.Lframe0
	.4byte	.LFB48
	.4byte	.LFE48-.LFB48
	.byte	0x4
	.4byte	.LCFI46-.LFB48
	.byte	0xe
	.uleb128 0x8
	.byte	0x87
	.uleb128 0x2
	.byte	0x8e
	.uleb128 0x1
	.byte	0x4
	.4byte	.LCFI47-.LCFI46
	.byte	0xe
	.uleb128 0x10
	.byte	0x4
	.4byte	.LCFI48-.LCFI47
	.byte	0xd
	.uleb128 0x7
	.align	2
.LEFDE32:
.LSFDE34:
	.4byte	.LEFDE34-.LASFDE34
.LASFDE34:
	.4byte	.Lframe0
	.4byte	.LFB49
	.4byte	.LFE49-.LFB49
	.byte	0x4
	.4byte	.LCFI49-.LFB49
	.byte	0xe
	.uleb128 0x8
	.byte	0x87
	.uleb128 0x2
	.byte	0x8e
	.uleb128 0x1
	.byte	0x4
	.4byte	.LCFI50-.LCFI49
	.byte	0xe
	.uleb128 0x10
	.byte	0x4
	.4byte	.LCFI51-.LCFI50
	.byte	0xd
	.uleb128 0x7
	.align	2
.LEFDE34:
.LSFDE36:
	.4byte	.LEFDE36-.LASFDE36
.LASFDE36:
	.4byte	.Lframe0
	.4byte	.LFB50
	.4byte	.LFE50-.LFB50
	.byte	0x4
	.4byte	.LCFI52-.LFB50
	.byte	0xe
	.uleb128 0x8
	.byte	0x87
	.uleb128 0x2
	.byte	0x8e
	.uleb128 0x1
	.byte	0x4
	.4byte	.LCFI53-.LCFI52
	.byte	0xe
	.uleb128 0x10
	.byte	0x4
	.4byte	.LCFI54-.LCFI53
	.byte	0xd
	.uleb128 0x7
	.align	2
.LEFDE36:
.LSFDE38:
	.4byte	.LEFDE38-.LASFDE38
.LASFDE38:
	.4byte	.Lframe0
	.4byte	.LFB51
	.4byte	.LFE51-.LFB51
	.byte	0x4
	.4byte	.LCFI55-.LFB51
	.byte	0xe
	.uleb128 0x8
	.byte	0x87
	.uleb128 0x2
	.byte	0x8e
	.uleb128 0x1
	.byte	0x4
	.4byte	.LCFI56-.LCFI55
	.byte	0xe
	.uleb128 0x10
	.byte	0x4
	.4byte	.LCFI57-.LCFI56
	.byte	0xd
	.uleb128 0x7
	.align	2
.LEFDE38:
.LSFDE40:
	.4byte	.LEFDE40-.LASFDE40
.LASFDE40:
	.4byte	.Lframe0
	.4byte	.LFB52
	.4byte	.LFE52-.LFB52
	.byte	0x4
	.4byte	.LCFI58-.LFB52
	.byte	0xe
	.uleb128 0xc
	.byte	0x84
	.uleb128 0x3
	.byte	0x87
	.uleb128 0x2
	.byte	0x8e
	.uleb128 0x1
	.byte	0x4
	.4byte	.LCFI59-.LCFI58
	.byte	0xe
	.uleb128 0x30
	.byte	0x4
	.4byte	.LCFI60-.LCFI59
	.byte	0xd
	.uleb128 0x7
	.align	2
.LEFDE40:
.LSFDE42:
	.4byte	.LEFDE42-.LASFDE42
.LASFDE42:
	.4byte	.Lframe0
	.4byte	.LFB53
	.4byte	.LFE53-.LFB53
	.byte	0x4
	.4byte	.LCFI61-.LFB53
	.byte	0xe
	.uleb128 0x8
	.byte	0x87
	.uleb128 0x2
	.byte	0x8e
	.uleb128 0x1
	.byte	0x4
	.4byte	.LCFI62-.LCFI61
	.byte	0xe
	.uleb128 0x20
	.byte	0x4
	.4byte	.LCFI63-.LCFI62
	.byte	0xd
	.uleb128 0x7
	.align	2
.LEFDE42:
.LSFDE44:
	.4byte	.LEFDE44-.LASFDE44
.LASFDE44:
	.4byte	.Lframe0
	.4byte	.LFB54
	.4byte	.LFE54-.LFB54
	.byte	0x4
	.4byte	.LCFI64-.LFB54
	.byte	0xe
	.uleb128 0x8
	.byte	0x87
	.uleb128 0x2
	.byte	0x8e
	.uleb128 0x1
	.byte	0x4
	.4byte	.LCFI65-.LCFI64
	.byte	0xe
	.uleb128 0x18
	.byte	0x4
	.4byte	.LCFI66-.LCFI65
	.byte	0xd
	.uleb128 0x7
	.align	2
.LEFDE44:
.LSFDE46:
	.4byte	.LEFDE46-.LASFDE46
.LASFDE46:
	.4byte	.Lframe0
	.4byte	.LFB55
	.4byte	.LFE55-.LFB55
	.byte	0x4
	.4byte	.LCFI67-.LFB55
	.byte	0xe
	.uleb128 0x8
	.byte	0x87
	.uleb128 0x2
	.byte	0x8e
	.uleb128 0x1
	.byte	0x4
	.4byte	.LCFI68-.LCFI67
	.byte	0xe
	.uleb128 0x10
	.byte	0x4
	.4byte	.LCFI69-.LCFI68
	.byte	0xd
	.uleb128 0x7
	.align	2
.LEFDE46:
.LSFDE48:
	.4byte	.LEFDE48-.LASFDE48
.LASFDE48:
	.4byte	.Lframe0
	.4byte	.LFB56
	.4byte	.LFE56-.LFB56
	.byte	0x4
	.4byte	.LCFI70-.LFB56
	.byte	0xe
	.uleb128 0x8
	.byte	0x87
	.uleb128 0x2
	.byte	0x8e
	.uleb128 0x1
	.byte	0x4
	.4byte	.LCFI71-.LCFI70
	.byte	0xe
	.uleb128 0x10
	.byte	0x4
	.4byte	.LCFI72-.LCFI71
	.byte	0xd
	.uleb128 0x7
	.align	2
.LEFDE48:
.LSFDE50:
	.4byte	.LEFDE50-.LASFDE50
.LASFDE50:
	.4byte	.Lframe0
	.4byte	.LFB57
	.4byte	.LFE57-.LFB57
	.byte	0x4
	.4byte	.LCFI73-.LFB57
	.byte	0xe
	.uleb128 0x8
	.byte	0x87
	.uleb128 0x2
	.byte	0x8e
	.uleb128 0x1
	.byte	0x4
	.4byte	.LCFI74-.LCFI73
	.byte	0xe
	.uleb128 0x10
	.byte	0x4
	.4byte	.LCFI75-.LCFI74
	.byte	0xd
	.uleb128 0x7
	.align	2
.LEFDE50:
	.text
.Letext0:
	.file 2 "/usr/share/crossworks_for_arm_3.7/include/stdint.h"
	.file 3 "../../../../include/caribou/lib/errno.h"
	.file 4 "../../../../include/caribou/lib/stdio.h"
	.file 5 "../../../../include/caribou/lib/mutex.h"
	.file 6 "../../../../include/caribou/lib/bytequeue.h"
	.file 7 "../../../../include/caribou/dev/uart.h"