	.syntax unified
	.cpu cortex-m0
	.fpu softvfp
	.eabi_attribute 20, 1
	.eabi_attribute 21, 1
	.eabi_attribute 23, 3
	.eabi_attribute 24, 1
	.eabi_attribute 25, 1
	.eabi_attribute 26, 1
	.eabi_attribute 30, 6
	.eabi_attribute 34, 0
	.eabi_attribute 18, 4
	.thumb
	.syntax unified
	.file	"i2s.c"
	.text
.Ltext0:
	.section	.text.caribou_i2s_rx_ready,"ax",%progbits
	.align	2
	.global	caribou_i2s_rx_ready
	.code	16
	.thumb_func
	.type	caribou_i2s_rx_ready, %function
caribou_i2s_rx_ready:
.LFB32:
	.file 1 "/home/mike/Documents/GitHub/caribou-rtos/caribou/target/board/nucleo_f091/crossworks/../../../../src/dev/i2s.c"
	.loc 1 18 0
	@ args = 0, pretend = 0, frame = 8
	@ frame_needed = 1, uses_anonymous_args = 0
	push	{r7, lr}
.LCFI0:
	sub	sp, sp, #8
.LCFI1:
	add	r7, sp, #0
.LCFI2:
	str	r0, [r7, #4]
	.loc 1 19 0
	ldr	r3, [r7, #4]
	ldr	r3, [r3]
	movs	r0, r3
	bl	chip_i2s_rx_ready
	movs	r3, r0
	.loc 1 20 0
	movs	r0, r3
	mov	sp, r7
	add	sp, sp, #8
	@ sp needed
	pop	{r7, pc}
.LFE32:
	.size	caribou_i2s_rx_ready, .-caribou_i2s_rx_ready
	.section	.text.caribou_i2s_rx,"ax",%progbits
	.align	2
	.global	caribou_i2s_rx
	.code	16
	.thumb_func
	.type	caribou_i2s_rx, %function
caribou_i2s_rx:
.LFB33:
	.loc 1 23 0
	@ args = 0, pretend = 0, frame = 8
	@ frame_needed = 1, uses_anonymous_args = 0
	push	{r7, lr}
.LCFI3:
	sub	sp, sp, #8
.LCFI4:
	add	r7, sp, #0
.LCFI5:
	str	r0, [r7, #4]
	.loc 1 24 0
	ldr	r3, [r7, #4]
	ldr	r3, [r3]
	movs	r0, r3
	bl	chip_i2s_rx
	movs	r3, r0
	.loc 1 25 0
	movs	r0, r3
	mov	sp, r7
	add	sp, sp, #8
	@ sp needed
	pop	{r7, pc}
.LFE33:
	.size	caribou_i2s_rx, .-caribou_i2s_rx
	.section	.text.caribou_i2s_tx_ready,"ax",%progbits
	.align	2
	.global	caribou_i2s_tx_ready
	.code	16
	.thumb_func
	.type	caribou_i2s_tx_ready, %function
caribou_i2s_tx_ready:
.LFB34:
	.loc 1 28 0
	@ args = 0, pretend = 0, frame = 8
	@ frame_needed = 1, uses_anonymous_args = 0
	push	{r7, lr}
.LCFI6:
	sub	sp, sp, #8
.LCFI7:
	add	r7, sp, #0
.LCFI8:
	str	r0, [r7, #4]
	.loc 1 29 0
	ldr	r3, [r7, #4]
	ldr	r3, [r3]
	movs	r0, r3
	bl	chip_i2s_tx_ready
	movs	r3, r0
	.loc 1 30 0
	movs	r0, r3
	mov	sp, r7
	add	sp, sp, #8
	@ sp needed
	pop	{r7, pc}
.LFE34:
	.size	caribou_i2s_tx_ready, .-caribou_i2s_tx_ready
	.section	.text.caribou_i2s_tx,"ax",%progbits
	.align	2
	.global	caribou_i2s_tx
	.code	16
	.thumb_func
	.type	caribou_i2s_tx, %function
caribou_i2s_tx:
.LFB35:
	.loc 1 33 0
	@ args = 0, pretend = 0, frame = 8
	@ frame_needed = 1, uses_anonymous_args = 0
	push	{r7, lr}
.LCFI9:
	sub	sp, sp, #8
.LCFI10:
	add	r7, sp, #0
.LCFI11:
	str	r0, [r7, #4]
	movs	r2, r1
	adds	r3, r7, #2
	strh	r2, [r3]
	.loc 1 34 0
	ldr	r3, [r7, #4]
	ldr	r2, [r3]
	adds	r3, r7, #2
	ldrh	r3, [r3]
	movs	r1, r3
	movs	r0, r2
	bl	caribou_i2s_tx
	.loc 1 35 0
	nop
	mov	sp, r7
	add	sp, sp, #8
	@ sp needed
	pop	{r7, pc}
.LFE35:
	.size	caribou_i2s_tx, .-caribou_i2s_tx
	.section	.debug_frame,"",%progbits
.Lframe0:
	.4byte	.LECIE0-.LSCIE0
.LSCIE0:
	.4byte	0xffffffff
	.byte	0x3
	.ascii	"\000"
	.uleb128 0x1
	.sleb128 -4
	.uleb128 0xe
	.byte	0xc
	.uleb128 0xd
	.uleb128 0
	.align	2
.LECIE0:
.LSFDE0:
	.4byte	.LEFDE0-.LASFDE0
.LASFDE0:
	.4byte	.Lframe0
	.4byte	.LFB32
	.4byte	.LFE32-.LFB32
	.byte	0x4
	.4byte	.LCFI0-.LFB32
	.byte	0xe
	.uleb128 0x8
	.byte	0x87
	.uleb128 0x2
	.byte	0x8e
	.uleb128 0x1
	.byte	0x4
	.4byte	.LCFI1-.LCFI0
	.byte	0xe
	.uleb128 0x10
	.byte	0x4
	.4byte	.LCFI2-.LCFI1
	.byte	0xd
	.uleb128 0x7
	.align	2
.LEFDE0:
.LSFDE2:
	.4byte	.LEFDE2-.LASFDE2
.LASFDE2:
	.4byte	.Lframe0
	.4byte	.LFB33
	.4byte	.LFE33-.LFB33
	.byte	0x4
	.4byte	.LCFI3-.LFB33
	.byte	0xe
	.uleb128 0x8
	.byte	0x87
	.uleb128 0x2
	.byte	0x8e
	.uleb128 0x1
	.byte	0x4
	.4byte	.LCFI4-.LCFI3
	.byte	0xe
	.uleb128 0x10
	.byte	0x4
	.4byte	.LCFI5-.LCFI4
	.byte	0xd
	.uleb128 0x7
	.align	2
.LEFDE2:
.LSFDE4:
	.4byte	.LEFDE4-.LASFDE4
.LASFDE4:
	.4byte	.Lframe0
	.4byte	.LFB34
	.4byte	.LFE34-.LFB34
	.byte	0x4
	.4byte	.LCFI6-.LFB34
	.byte	0xe
	.uleb128 0x8
	.byte	0x87
	.uleb128 0x2
	.byte	0x8e
	.uleb128 0x1
	.byte	0x4
	.4byte	.LCFI7-.LCFI6
	.byte	0xe
	.uleb128 0x10
	.byte	0x4
	.4byte	.LCFI8-.LCFI7
	.byte	0xd
	.uleb128 0x7
	.align	2
.LEFDE4:
.LSFDE6:
	.4byte	.LEFDE6-.LASFDE6
.LASFDE6:
	.4byte	.Lframe0
	.4byte	.LFB35
	.4byte	.LFE35-.LFB35
	.byte	0x4
	.4byte	.LCFI9-.LFB35
	.byte	0xe
	.uleb128 0x8
	.byte	0x87
	.uleb128 0x2
	.byte	0x8e
	.uleb128 0x1
	.byte	0x4
	.4byte	.LCFI10-.LCFI9
	.byte	0xe
	.uleb128 0x10
	.byte	0x4
	.4byte	.LCFI11-.LCFI10
	.byte	0xd
	.uleb128 0x7
	.align	2
.LEFDE6:
	.text
.Letext0:
	.file 2 "../../../chip/stm32/stm32f091/lib/CMSIS/ST/STM32F0xx/Include/stm32f0xx.h"
	.file 3 "/usr/share/crossworks_for_arm_3.7/include/stdint.h"
	.file 4 "../../../../include/caribou/dev/i2s.h"