	.syntax unified
	.cpu cortex-m0
	.fpu softvfp
	.eabi_attribute 20, 1
	.eabi_attribute 21, 1
	.eabi_attribute 23, 3
	.eabi_attribute 24, 1
	.eabi_attribute 25, 1
	.eabi_attribute 26, 1
	.eabi_attribute 30, 6
	.eabi_attribute 34, 0
	.eabi_attribute 18, 4
	.thumb
	.syntax unified
	.file	"uart.c"
	.text
.Ltext0:
	.global	device_info
	.section	.data.device_info,"aw",%progbits
	.align	2
	.type	device_info, %object
	.size	device_info, 96
device_info:
	.word	1073821696
	.byte	27
	.space	3
	.word	9600
	.byte	8
	.byte	1
	.byte	0
	.byte	0
	.byte	0
	.space	3
	.word	0
	.word	0
	.word	0
	.word	1073759232
	.byte	28
	.space	3
	.word	9600
	.byte	8
	.byte	1
	.byte	0
	.byte	0
	.byte	0
	.space	3
	.word	0
	.word	0
	.word	0
	.word	0
	.byte	0
	.space	3
	.word	0
	.byte	0
	.byte	0
	.byte	0
	.byte	0
	.space	4
	.word	0
	.word	0
	.word	0
	.global	_stdio_
	.section	.rodata._stdio_,"a",%progbits
	.align	2
	.type	_stdio_, %object
	.size	_stdio_, 72
_stdio_:
	.word	device_info
	.word	caribou_uart_private_readfn
	.word	caribou_uart_private_writefn
	.word	caribou_uart_private_readqueuefn
	.word	caribou_uart_private_writequeuefn
	.word	caribou_uart_private_statefn
	.word	device_info+32
	.word	caribou_uart_private_readfn
	.word	caribou_uart_private_writefn
	.word	caribou_uart_private_readqueuefn
	.word	caribou_uart_private_writequeuefn
	.word	caribou_uart_private_statefn
	.word	0
	.word	0
	.word	0
	.word	0
	.word	0
	.word	0
	.section	.text.chip_uart_int_enable,"ax",%progbits
	.align	2
	.global	chip_uart_int_enable
	.code	16
	.thumb_func
	.type	chip_uart_int_enable, %function
chip_uart_int_enable:
.LFB32:
	.file 1 "/home/mike/Documents/GitHub/caribou-rtos/caribou/target/board/nucleo_f091/crossworks/../../../chip/stm32/stm32f030/src/uart.c"
	.loc 1 99 0
	@ args = 0, pretend = 0, frame = 16
	@ frame_needed = 1, uses_anonymous_args = 0
	push	{r7, lr}
.LCFI0:
	sub	sp, sp, #16
.LCFI1:
	add	r7, sp, #0
.LCFI2:
	str	r0, [r7, #4]
	.loc 1 100 0
	ldr	r3, [r7, #4]
	str	r3, [r7, #12]
	.loc 1 101 0
	ldr	r3, [r7, #12]
	movs	r0, r3
	bl	chip_uart_int_enabled
	movs	r3, r0
	str	r3, [r7, #8]
	.loc 1 102 0
	ldr	r3, [r7, #12]
	ldr	r3, [r3]
	ldr	r1, .L3
	movs	r2, #1
	movs	r0, r3
	bl	USART_ITConfig
	.loc 1 103 0
	ldr	r3, [r7, #8]
	.loc 1 104 0
	movs	r0, r3
	mov	sp, r7
	add	sp, sp, #16
	@ sp needed
	pop	{r7, pc}
.L4:
	.align	2
.L3:
	.word	327941
.LFE32:
	.size	chip_uart_int_enable, .-chip_uart_int_enable
	.section	.text.chip_uart_int_disable,"ax",%progbits
	.align	2
	.global	chip_uart_int_disable
	.code	16
	.thumb_func
	.type	chip_uart_int_disable, %function
chip_uart_int_disable:
.LFB33:
	.loc 1 109 0
	@ args = 0, pretend = 0, frame = 16
	@ frame_needed = 1, uses_anonymous_args = 0
	push	{r7, lr}
.LCFI3:
	sub	sp, sp, #16
.LCFI4:
	add	r7, sp, #0
.LCFI5:
	str	r0, [r7, #4]
	.loc 1 110 0
	ldr	r3, [r7, #4]
	str	r3, [r7, #12]
	.loc 1 111 0
	ldr	r3, [r7, #12]
	movs	r0, r3
	bl	chip_uart_int_enabled
	movs	r3, r0
	str	r3, [r7, #8]
	.loc 1 112 0
	ldr	r3, [r7, #12]
	ldr	r3, [r3]
	ldr	r1, .L7
	movs	r2, #0
	movs	r0, r3
	bl	USART_ITConfig
	.loc 1 113 0
	ldr	r3, [r7, #8]
	.loc 1 114 0
	movs	r0, r3
	mov	sp, r7
	add	sp, sp, #16
	@ sp needed
	pop	{r7, pc}
.L8:
	.align	2
.L7:
	.word	327941
.LFE33:
	.size	chip_uart_int_disable, .-chip_uart_int_disable
	.section	.text.chip_uart_int_enabled,"ax",%progbits
	.align	2
	.global	chip_uart_int_enabled
	.code	16
	.thumb_func
	.type	chip_uart_int_enabled, %function
chip_uart_int_enabled:
.LFB34:
	.loc 1 118 0
	@ args = 0, pretend = 0, frame = 16
	@ frame_needed = 1, uses_anonymous_args = 0
	push	{r7, lr}
.LCFI6:
	sub	sp, sp, #16
.LCFI7:
	add	r7, sp, #0
.LCFI8:
	str	r0, [r7, #4]
	.loc 1 119 0
	ldr	r3, [r7, #4]
	str	r3, [r7, #12]
	.loc 1 120 0
	ldr	r3, [r7, #12]
	ldr	r3, [r3]
	ldr	r3, [r3]
	ldr	r2, .L11
	ands	r3, r2
	subs	r2, r3, #1
	sbcs	r3, r3, r2
	uxtb	r3, r3
	str	r3, [r7, #8]
	.loc 1 121 0
	ldr	r3, [r7, #8]
	.loc 1 122 0
	movs	r0, r3
	mov	sp, r7
	add	sp, sp, #16
	@ sp needed
	pop	{r7, pc}
.L12:
	.align	2
.L11:
	.word	327941
.LFE34:
	.size	chip_uart_int_enabled, .-chip_uart_int_enabled
	.section	.text.chip_uart_int_set,"ax",%progbits
	.align	2
	.global	chip_uart_int_set
	.code	16
	.thumb_func
	.type	chip_uart_int_set, %function
chip_uart_int_set:
.LFB35:
	.loc 1 126 0
	@ args = 0, pretend = 0, frame = 16
	@ frame_needed = 1, uses_anonymous_args = 0
	push	{r7, lr}
.LCFI9:
	sub	sp, sp, #16
.LCFI10:
	add	r7, sp, #0
.LCFI11:
	str	r0, [r7, #4]
	str	r1, [r7]
	.loc 1 127 0
	ldr	r3, [r7, #4]
	movs	r0, r3
	bl	chip_uart_int_enabled
	movs	r3, r0
	str	r3, [r7, #12]
	.loc 1 128 0
	ldr	r3, [r7]
	cmp	r3, #0
	beq	.L14
.LBB2:
	.loc 1 129 0
	ldr	r3, [r7, #4]
	movs	r0, r3
	bl	uart_enable_interrupts
.LBE2:
	b	.L15
.L14:
.LBB3:
	.loc 1 131 0
	ldr	r3, [r7, #4]
	movs	r0, r3
	bl	uart_disable_interrupts
.L15:
.LBE3:
	.loc 1 132 0
	ldr	r3, [r7, #12]
	.loc 1 133 0
	movs	r0, r3
	mov	sp, r7
	add	sp, sp, #16
	@ sp needed
	pop	{r7, pc}
.LFE35:
	.size	chip_uart_int_set, .-chip_uart_int_set
	.section	.text.uart_enable,"ax",%progbits
	.align	2
	.code	16
	.thumb_func
	.type	uart_enable, %function
uart_enable:
.LFB36:
	.loc 1 137 0
	@ args = 0, pretend = 0, frame = 8
	@ frame_needed = 1, uses_anonymous_args = 0
	push	{r7, lr}
.LCFI12:
	sub	sp, sp, #8
.LCFI13:
	add	r7, sp, #0
.LCFI14:
	str	r0, [r7, #4]
	.loc 1 138 0
	ldr	r3, [r7, #4]
	ldr	r3, [r3]
	movs	r1, #1
	movs	r0, r3
	bl	USART_Cmd
	.loc 1 139 0
	nop
	mov	sp, r7
	add	sp, sp, #8
	@ sp needed
	pop	{r7, pc}
.LFE36:
	.size	uart_enable, .-uart_enable
	.section	.text.uart_disable,"ax",%progbits
	.align	2
	.code	16
	.thumb_func
	.type	uart_disable, %function
uart_disable:
.LFB37:
	.loc 1 143 0
	@ args = 0, pretend = 0, frame = 8
	@ frame_needed = 1, uses_anonymous_args = 0
	push	{r7, lr}
.LCFI15:
	sub	sp, sp, #8
.LCFI16:
	add	r7, sp, #0
.LCFI17:
	str	r0, [r7, #4]
	.loc 1 144 0
	ldr	r3, [r7, #4]
	ldr	r3, [r3]
	movs	r1, #0
	movs	r0, r3
	bl	USART_Cmd
	.loc 1 145 0
	nop
	mov	sp, r7
	add	sp, sp, #8
	@ sp needed
	pop	{r7, pc}
.LFE37:
	.size	uart_disable, .-uart_disable
	.section	.text.chip_uart_set_config,"ax",%progbits
	.align	2
	.global	chip_uart_set_config
	.code	16
	.thumb_func
	.type	chip_uart_set_config, %function
chip_uart_set_config:
.LFB38:
	.loc 1 149 0
	@ args = 0, pretend = 0, frame = 40
	@ frame_needed = 1, uses_anonymous_args = 0
	push	{r7, lr}
.LCFI18:
	sub	sp, sp, #40
.LCFI19:
	add	r7, sp, #0
.LCFI20:
	str	r0, [r7, #4]
	str	r1, [r7]
	.loc 1 150 0
	movs	r3, #1
	rsbs	r3, r3, #0
	str	r3, [r7, #36]
	.loc 1 151 0
	ldr	r3, [r7, #4]
	str	r3, [r7, #32]
	.loc 1 152 0
	ldr	r3, [r7]
	cmp	r3, #0
	bne	.L20
	.loc 1 154 0
	ldr	r3, [r7, #32]
	adds	r3, r3, #8
	str	r3, [r7]
.L20:
	.loc 1 156 0
	ldr	r3, [r7, #32]
	ldr	r3, [r3]
	movs	r1, #0
	movs	r0, r3
	bl	USART_Cmd
	.loc 1 157 0
	ldr	r3, [r7]
	cmp	r3, #0
	bne	.LCB291
	b	.L21	@long jump
.LCB291:
.LBB4:
	.loc 1 160 0
	ldr	r3, [r7]
	ldr	r2, [r3]
	movs	r3, #8
	adds	r3, r7, r3
	str	r2, [r3]
	.loc 1 161 0
	ldr	r3, [r7]
	ldrb	r3, [r3, #4]
	movs	r2, r3
	movs	r3, #8
	adds	r3, r7, r3
	str	r2, [r3, #4]
	.loc 1 163 0
	ldr	r3, [r7]
	ldrb	r3, [r3, #4]
	cmp	r3, #9
	beq	.L23
	.loc 1 170 0
	movs	r3, #8
	adds	r3, r7, r3
	movs	r2, #0
	str	r2, [r3, #4]
	.loc 1 171 0
	b	.L24
.L23:
	.loc 1 173 0
	movs	r3, #8
	adds	r3, r7, r3
	movs	r2, #128
	lsls	r2, r2, #5
	str	r2, [r3, #4]
	.loc 1 174 0
	nop
.L24:
	.loc 1 177 0
	ldr	r3, [r7]
	ldrb	r3, [r3, #5]
	cmp	r3, #2
	beq	.L26
	cmp	r3, #3
	beq	.L27
	.loc 1 184 0
	movs	r3, #8
	adds	r3, r7, r3
	movs	r2, #0
	str	r2, [r3, #8]
	.loc 1 185 0
	b	.L28
.L26:
	.loc 1 187 0
	movs	r3, #8
	adds	r3, r7, r3
	movs	r2, #192
	lsls	r2, r2, #6
	str	r2, [r3, #8]
	.loc 1 188 0
	b	.L28
.L27:
	.loc 1 190 0
	movs	r3, #8
	adds	r3, r7, r3
	movs	r2, #128
	lsls	r2, r2, #6
	str	r2, [r3, #8]
	.loc 1 191 0
	nop
.L28:
	.loc 1 194 0
	ldr	r3, [r7]
	ldrb	r3, [r3, #6]
	cmp	r3, #1
	beq	.L30
	cmp	r3, #2
	beq	.L31
	.loc 1 198 0
	movs	r3, #8
	adds	r3, r7, r3
	movs	r2, #0
	str	r2, [r3, #12]
	.loc 1 199 0
	b	.L32
.L31:
	.loc 1 201 0
	movs	r3, #8
	adds	r3, r7, r3
	movs	r2, #192
	lsls	r2, r2, #3
	str	r2, [r3, #12]
	.loc 1 202 0
	b	.L32
.L30:
	.loc 1 204 0
	movs	r3, #8
	adds	r3, r7, r3
	movs	r2, #128
	lsls	r2, r2, #3
	str	r2, [r3, #12]
	.loc 1 205 0
	nop
.L32:
	.loc 1 208 0
	ldr	r3, [r7]
	ldrb	r3, [r3, #7]
	cmp	r3, #2
	beq	.L34
	cmp	r3, #3
	beq	.L35
	cmp	r3, #1
	beq	.L36
	.loc 1 212 0
	movs	r3, #8
	adds	r3, r7, r3
	movs	r2, #0
	str	r2, [r3, #20]
	.loc 1 213 0
	b	.L37
.L36:
	.loc 1 215 0
	movs	r3, #8
	adds	r3, r7, r3
	movs	r2, #128
	lsls	r2, r2, #1
	str	r2, [r3, #20]
	.loc 1 216 0
	b	.L37
.L34:
	.loc 1 218 0
	movs	r3, #8
	adds	r3, r7, r3
	movs	r2, #128
	lsls	r2, r2, #2
	str	r2, [r3, #20]
	.loc 1 219 0
	b	.L37
.L35:
	.loc 1 221 0
	movs	r3, #8
	adds	r3, r7, r3
	movs	r2, #192
	lsls	r2, r2, #2
	str	r2, [r3, #20]
	.loc 1 222 0
	nop
.L37:
	.loc 1 225 0
	movs	r3, #8
	adds	r3, r7, r3
	movs	r2, #12
	str	r2, [r3, #16]
	.loc 1 226 0
	ldr	r3, [r7, #32]
	ldr	r3, [r3]
	movs	r2, #8
	adds	r2, r7, r2
	movs	r1, r2
	movs	r0, r3
	bl	USART_Init
	.loc 1 227 0
	ldr	r3, [r7, #32]
	ldr	r3, [r3]
	movs	r1, #1
	movs	r0, r3
	bl	USART_Cmd
	.loc 1 228 0
	ldr	r3, [r7, #32]
	ldrb	r3, [r3, #4]
	ldr	r2, [r7, #32]
	ldr	r1, .L39
	movs	r0, r3
	bl	caribou_vector_install
	.loc 1 229 0
	ldr	r3, [r7, #32]
	ldrb	r3, [r3, #4]
	movs	r0, r3
	bl	chip_vector_enable
	.loc 1 230 0
	ldr	r3, [r7, #32]
	ldr	r3, [r3]
	ldr	r1, .L39+4
	movs	r2, #1
	movs	r0, r3
	bl	USART_ITConfig
	.loc 1 231 0
	movs	r3, #0
	str	r3, [r7, #36]
.L21:
.LBE4:
	.loc 1 233 0
	ldr	r3, [r7, #36]
	.loc 1 234 0
	movs	r0, r3
	mov	sp, r7
	add	sp, sp, #40
	@ sp needed
	pop	{r7, pc}
.L40:
	.align	2
.L39:
	.word	isr_uart
	.word	327941
.LFE38:
	.size	chip_uart_set_config, .-chip_uart_set_config
	.section	.text.chip_uart_open,"ax",%progbits
	.align	2
	.global	chip_uart_open
	.code	16
	.thumb_func
	.type	chip_uart_open, %function
chip_uart_open:
.LFB39:
	.loc 1 238 0
	@ args = 0, pretend = 0, frame = 8
	@ frame_needed = 1, uses_anonymous_args = 0
	push	{r7, lr}
.LCFI21:
	sub	sp, sp, #8
.LCFI22:
	add	r7, sp, #0
.LCFI23:
	str	r0, [r7, #4]
	.loc 1 239 0
	ldr	r3, [r7, #4]
	.loc 1 240 0
	movs	r0, r3
	mov	sp, r7
	add	sp, sp, #8
	@ sp needed
	pop	{r7, pc}
.LFE39:
	.size	chip_uart_open, .-chip_uart_open
	.section	.text.chip_uart_close,"ax",%progbits
	.align	2
	.global	chip_uart_close
	.code	16
	.thumb_func
	.type	chip_uart_close, %function
chip_uart_close:
.LFB40:
	.loc 1 244 0
	@ args = 0, pretend = 0, frame = 8
	@ frame_needed = 1, uses_anonymous_args = 0
	push	{r7, lr}
.LCFI24:
	sub	sp, sp, #8
.LCFI25:
	add	r7, sp, #0
.LCFI26:
	str	r0, [r7, #4]
	.loc 1 245 0
	ldr	r3, [r7, #4]
	.loc 1 246 0
	movs	r0, r3
	mov	sp, r7
	add	sp, sp, #8
	@ sp needed
	pop	{r7, pc}
.LFE40:
	.size	chip_uart_close, .-chip_uart_close
	.section	.text.chip_uart_set_rx_queue,"ax",%progbits
	.align	2
	.global	chip_uart_set_rx_queue
	.code	16
	.thumb_func
	.type	chip_uart_set_rx_queue, %function
chip_uart_set_rx_queue:
.LFB41:
	.loc 1 249 0
	@ args = 0, pretend = 0, frame = 16
	@ frame_needed = 1, uses_anonymous_args = 0
	push	{r7, lr}
.LCFI27:
	sub	sp, sp, #16
.LCFI28:
	add	r7, sp, #0
.LCFI29:
	str	r0, [r7, #4]
	str	r1, [r7]
	.loc 1 250 0
	ldr	r3, [r7, #4]
	str	r3, [r7, #12]
	.loc 1 251 0
	ldr	r3, [r7, #12]
	ldr	r2, [r7]
	str	r2, [r3, #24]
	.loc 1 252 0
	ldr	r3, [r7]
	.loc 1 253 0
	movs	r0, r3
	mov	sp, r7
	add	sp, sp, #16
	@ sp needed
	pop	{r7, pc}
.LFE41:
	.size	chip_uart_set_rx_queue, .-chip_uart_set_rx_queue
	.section	.text.chip_uart_set_tx_queue,"ax",%progbits
	.align	2
	.global	chip_uart_set_tx_queue
	.code	16
	.thumb_func
	.type	chip_uart_set_tx_queue, %function
chip_uart_set_tx_queue:
.LFB42:
	.loc 1 256 0
	@ args = 0, pretend = 0, frame = 16
	@ frame_needed = 1, uses_anonymous_args = 0
	push	{r7, lr}
.LCFI30:
	sub	sp, sp, #16
.LCFI31:
	add	r7, sp, #0
.LCFI32:
	str	r0, [r7, #4]
	str	r1, [r7]
	.loc 1 257 0
	ldr	r3, [r7, #4]
	str	r3, [r7, #12]
	.loc 1 258 0
	ldr	r3, [r7, #12]
	ldr	r2, [r7]
	str	r2, [r3, #28]
	.loc 1 259 0
	ldr	r3, [r7]
	.loc 1 260 0
	movs	r0, r3
	mov	sp, r7
	add	sp, sp, #16
	@ sp needed
	pop	{r7, pc}
.LFE42:
	.size	chip_uart_set_tx_queue, .-chip_uart_set_tx_queue
	.section	.text.chip_uart_rx_queue,"ax",%progbits
	.align	2
	.global	chip_uart_rx_queue
	.code	16
	.thumb_func
	.type	chip_uart_rx_queue, %function
chip_uart_rx_queue:
.LFB43:
	.loc 1 263 0
	@ args = 0, pretend = 0, frame = 16
	@ frame_needed = 1, uses_anonymous_args = 0
	push	{r7, lr}
.LCFI33:
	sub	sp, sp, #16
.LCFI34:
	add	r7, sp, #0
.LCFI35:
	str	r0, [r7, #4]
	.loc 1 264 0
	ldr	r3, [r7, #4]
	str	r3, [r7, #12]
	.loc 1 265 0
	ldr	r3, [r7, #12]
	ldr	r3, [r3, #24]
	.loc 1 266 0
	movs	r0, r3
	mov	sp, r7
	add	sp, sp, #16
	@ sp needed
	pop	{r7, pc}
.LFE43:
	.size	chip_uart_rx_queue, .-chip_uart_rx_queue
	.section	.text.chip_uart_tx_queue,"ax",%progbits
	.align	2
	.global	chip_uart_tx_queue
	.code	16
	.thumb_func
	.type	chip_uart_tx_queue, %function
chip_uart_tx_queue:
.LFB44:
	.loc 1 269 0
	@ args = 0, pretend = 0, frame = 16
	@ frame_needed = 1, uses_anonymous_args = 0
	push	{r7, lr}
.LCFI36:
	sub	sp, sp, #16
.LCFI37:
	add	r7, sp, #0
.LCFI38:
	str	r0, [r7, #4]
	.loc 1 270 0
	ldr	r3, [r7, #4]
	str	r3, [r7, #12]
	.loc 1 271 0
	ldr	r3, [r7, #12]
	ldr	r3, [r3, #28]
	.loc 1 272 0
	movs	r0, r3
	mov	sp, r7
	add	sp, sp, #16
	@ sp needed
	pop	{r7, pc}
.LFE44:
	.size	chip_uart_tx_queue, .-chip_uart_tx_queue
	.section	.text.chip_uart_interrupt_vector,"ax",%progbits
	.align	2
	.global	chip_uart_interrupt_vector
	.code	16
	.thumb_func
	.type	chip_uart_interrupt_vector, %function
chip_uart_interrupt_vector:
.LFB45:
	.loc 1 275 0
	@ args = 0, pretend = 0, frame = 16
	@ frame_needed = 1, uses_anonymous_args = 0
	push	{r7, lr}
.LCFI39:
	sub	sp, sp, #16
.LCFI40:
	add	r7, sp, #0
.LCFI41:
	str	r0, [r7, #4]
	.loc 1 276 0
	ldr	r3, [r7, #4]
	str	r3, [r7, #12]
	.loc 1 277 0
	ldr	r3, [r7, #12]
	ldrb	r3, [r3, #4]
	.loc 1 278 0
	movs	r0, r3
	mov	sp, r7
	add	sp, sp, #16
	@ sp needed
	pop	{r7, pc}
.LFE45:
	.size	chip_uart_interrupt_vector, .-chip_uart_interrupt_vector
	.section	.text.chip_uart_status,"ax",%progbits
	.align	2
	.global	chip_uart_status
	.code	16
	.thumb_func
	.type	chip_uart_status, %function
chip_uart_status:
.LFB46:
	.loc 1 281 0
	@ args = 0, pretend = 0, frame = 16
	@ frame_needed = 1, uses_anonymous_args = 0
	push	{r7, lr}
.LCFI42:
	sub	sp, sp, #16
.LCFI43:
	add	r7, sp, #0
.LCFI44:
	str	r0, [r7, #4]
	.loc 1 282 0
	ldr	r3, [r7, #4]
	str	r3, [r7, #12]
	.loc 1 283 0
	ldr	r3, [r7, #12]
	ldr	r3, [r3, #20]
	.loc 1 284 0
	movs	r0, r3
	mov	sp, r7
	add	sp, sp, #16
	@ sp needed
	pop	{r7, pc}
.LFE46:
	.size	chip_uart_status, .-chip_uart_status
	.section	.text.chip_uart_set_status,"ax",%progbits
	.align	2
	.global	chip_uart_set_status
	.code	16
	.thumb_func
	.type	chip_uart_set_status, %function
chip_uart_set_status:
.LFB47:
	.loc 1 287 0
	@ args = 0, pretend = 0, frame = 16
	@ frame_needed = 1, uses_anonymous_args = 0
	push	{r7, lr}
.LCFI45:
	sub	sp, sp, #16
.LCFI46:
	add	r7, sp, #0
.LCFI47:
	str	r0, [r7, #4]
	str	r1, [r7]
	.loc 1 288 0
	ldr	r3, [r7, #4]
	str	r3, [r7, #12]
	.loc 1 289 0
	ldr	r3, [r7, #12]
	ldr	r2, [r7]
	str	r2, [r3, #20]
	.loc 1 290 0
	ldr	r3, [r7, #12]
	ldr	r3, [r3, #20]
	.loc 1 291 0
	movs	r0, r3
	mov	sp, r7
	add	sp, sp, #16
	@ sp needed
	pop	{r7, pc}
.LFE47:
	.size	chip_uart_set_status, .-chip_uart_set_status
	.section	.text.chip_uart_tx_busy,"ax",%progbits
	.align	2
	.global	chip_uart_tx_busy
	.code	16
	.thumb_func
	.type	chip_uart_tx_busy, %function
chip_uart_tx_busy:
.LFB48:
	.loc 1 294 0
	@ args = 0, pretend = 0, frame = 16
	@ frame_needed = 1, uses_anonymous_args = 0
	push	{r7, lr}
.LCFI48:
	sub	sp, sp, #16
.LCFI49:
	add	r7, sp, #0
.LCFI50:
	str	r0, [r7, #4]
	.loc 1 295 0
	ldr	r3, [r7, #4]
	str	r3, [r7, #12]
	.loc 1 296 0
	ldr	r3, [r7, #12]
	ldr	r3, [r3]
	ldr	r3, [r3, #28]
	movs	r2, #64
	ands	r3, r2
	rsbs	r2, r3, #0
	adcs	r3, r3, r2
	uxtb	r2, r3
	movs	r3, #11
	adds	r3, r7, r3
	strb	r2, [r3]
	.loc 1 297 0
	movs	r3, #11
	adds	r3, r7, r3
	ldrb	r3, [r3]
	.loc 1 298 0
	movs	r0, r3
	mov	sp, r7
	add	sp, sp, #16
	@ sp needed
	pop	{r7, pc}
.LFE48:
	.size	chip_uart_tx_busy, .-chip_uart_tx_busy
	.section	.text.chip_uart_tx_ready,"ax",%progbits
	.align	2
	.global	chip_uart_tx_ready
	.code	16
	.thumb_func
	.type	chip_uart_tx_ready, %function
chip_uart_tx_ready:
.LFB49:
	.loc 1 301 0
	@ args = 0, pretend = 0, frame = 16
	@ frame_needed = 1, uses_anonymous_args = 0
	push	{r7, lr}
.LCFI51:
	sub	sp, sp, #16
.LCFI52:
	add	r7, sp, #0
.LCFI53:
	str	r0, [r7, #4]
	.loc 1 302 0
	ldr	r3, [r7, #4]
	str	r3, [r7, #12]
	.loc 1 303 0
	ldr	r3, [r7, #12]
	ldr	r3, [r3]
	ldr	r3, [r3, #28]
	movs	r2, #128
	ands	r3, r2
	subs	r2, r3, #1
	sbcs	r3, r3, r2
	uxtb	r2, r3
	movs	r3, #11
	adds	r3, r7, r3
	strb	r2, [r3]
	.loc 1 304 0
	movs	r3, #11
	adds	r3, r7, r3
	ldrb	r3, [r3]
	.loc 1 305 0
	movs	r0, r3
	mov	sp, r7
	add	sp, sp, #16
	@ sp needed
	pop	{r7, pc}
.LFE49:
	.size	chip_uart_tx_ready, .-chip_uart_tx_ready
	.section	.text.chip_uart_rx_ready,"ax",%progbits
	.align	2
	.global	chip_uart_rx_ready
	.code	16
	.thumb_func
	.type	chip_uart_rx_ready, %function
chip_uart_rx_ready:
.LFB50:
	.loc 1 308 0
	@ args = 0, pretend = 0, frame = 24
	@ frame_needed = 1, uses_anonymous_args = 0
	push	{r7, lr}
.LCFI54:
	sub	sp, sp, #24
.LCFI55:
	add	r7, sp, #0
.LCFI56:
	str	r0, [r7, #4]
	.loc 1 309 0
	ldr	r3, [r7, #4]
	str	r3, [r7, #20]
	.loc 1 310 0
	ldr	r3, [r7, #20]
	ldr	r3, [r3]
	ldr	r3, [r3, #28]
	str	r3, [r7, #16]
	.loc 1 311 0
	ldr	r3, [r7, #16]
	movs	r2, #32
	ands	r3, r2
	subs	r2, r3, #1
	sbcs	r3, r3, r2
	uxtb	r2, r3
	movs	r3, #15
	adds	r3, r7, r3
	strb	r2, [r3]
	.loc 1 312 0
	movs	r3, #15
	adds	r3, r7, r3
	ldrb	r3, [r3]
	.loc 1 313 0
	movs	r0, r3
	mov	sp, r7
	add	sp, sp, #24
	@ sp needed
	pop	{r7, pc}
.LFE50:
	.size	chip_uart_rx_ready, .-chip_uart_rx_ready
	.section	.text.chip_uart_tx_data,"ax",%progbits
	.align	2
	.global	chip_uart_tx_data
	.code	16
	.thumb_func
	.type	chip_uart_tx_data, %function
chip_uart_tx_data:
.LFB51:
	.loc 1 316 0
	@ args = 0, pretend = 0, frame = 16
	@ frame_needed = 1, uses_anonymous_args = 0
	push	{r7, lr}
.LCFI57:
	sub	sp, sp, #16
.LCFI58:
	add	r7, sp, #0
.LCFI59:
	str	r0, [r7, #4]
	str	r1, [r7]
	.loc 1 317 0
	ldr	r3, [r7, #4]
	str	r3, [r7, #12]
	.loc 1 318 0
	ldr	r3, [r7, #12]
	ldr	r3, [r3]
	ldr	r2, [r7]
	uxth	r2, r2
	strh	r2, [r3, #40]
	.loc 1 319 0
	ldr	r3, [r7]
	.loc 1 320 0
	movs	r0, r3
	mov	sp, r7
	add	sp, sp, #16
	@ sp needed
	pop	{r7, pc}
.LFE51:
	.size	chip_uart_tx_data, .-chip_uart_tx_data
	.section	.text.chip_uart_rx_data,"ax",%progbits
	.align	2
	.global	chip_uart_rx_data
	.code	16
	.thumb_func
	.type	chip_uart_rx_data, %function
chip_uart_rx_data:
.LFB52:
	.loc 1 323 0
	@ args = 0, pretend = 0, frame = 16
	@ frame_needed = 1, uses_anonymous_args = 0
	push	{r7, lr}
.LCFI60:
	sub	sp, sp, #16
.LCFI61:
	add	r7, sp, #0
.LCFI62:
	str	r0, [r7, #4]
	.loc 1 324 0
	ldr	r3, [r7, #4]
	str	r3, [r7, #12]
	.loc 1 325 0
	ldr	r3, [r7, #12]
	ldr	r3, [r3]
	ldrh	r3, [r3, #36]
	uxth	r3, r3
	.loc 1 326 0
	movs	r0, r3
	mov	sp, r7
	add	sp, sp, #16
	@ sp needed
	pop	{r7, pc}
.LFE52:
	.size	chip_uart_rx_data, .-chip_uart_rx_data
	.section	.text.chip_uart_tx_start,"ax",%progbits
	.align	2
	.global	chip_uart_tx_start
	.code	16
	.thumb_func
	.type	chip_uart_tx_start, %function
chip_uart_tx_start:
.LFB53:
	.loc 1 330 0
	@ args = 0, pretend = 0, frame = 16
	@ frame_needed = 1, uses_anonymous_args = 0
	push	{r7, lr}
.LCFI63:
	sub	sp, sp, #16
.LCFI64:
	add	r7, sp, #0
.LCFI65:
	str	r0, [r7, #4]
	.loc 1 331 0
	ldr	r3, [r7, #4]
	str	r3, [r7, #12]
	.loc 1 332 0
	ldr	r3, [r7, #12]
	ldr	r3, [r3]
	ldr	r2, [r7, #12]
	ldr	r2, [r2]
	ldr	r2, [r2]
	movs	r1, #128
	orrs	r2, r1
	str	r2, [r3]
	.loc 1 333 0
	nop
	mov	sp, r7
	add	sp, sp, #16
	@ sp needed
	pop	{r7, pc}
.LFE53:
	.size	chip_uart_tx_start, .-chip_uart_tx_start
	.section	.text.chip_uart_tx_stop,"ax",%progbits
	.align	2
	.global	chip_uart_tx_stop
	.code	16
	.thumb_func
	.type	chip_uart_tx_stop, %function
chip_uart_tx_stop:
.LFB54:
	.loc 1 337 0
	@ args = 0, pretend = 0, frame = 16
	@ frame_needed = 1, uses_anonymous_args = 0
	push	{r7, lr}
.LCFI66:
	sub	sp, sp, #16
.LCFI67:
	add	r7, sp, #0
.LCFI68:
	str	r0, [r7, #4]
	.loc 1 338 0
	ldr	r3, [r7, #4]
	str	r3, [r7, #12]
	.loc 1 339 0
	ldr	r3, [r7, #12]
	ldr	r3, [r3]
	ldr	r2, [r7, #12]
	ldr	r2, [r2]
	ldr	r2, [r2]
	movs	r1, #128
	bics	r2, r1
	str	r2, [r3]
	.loc 1 340 0
	nop
	mov	sp, r7
	add	sp, sp, #16
	@ sp needed
	pop	{r7, pc}
.LFE54:
	.size	chip_uart_tx_stop, .-chip_uart_tx_stop
	.section	.text.isr_uart,"ax",%progbits
	.align	2
	.global	isr_uart
	.code	16
	.thumb_func
	.type	isr_uart, %function
isr_uart:
.LFB55:
	.loc 1 344 0
	@ args = 0, pretend = 0, frame = 16
	@ frame_needed = 1, uses_anonymous_args = 0
	push	{r4, r7, lr}
.LCFI69:
	sub	sp, sp, #20
.LCFI70:
	add	r7, sp, #0
.LCFI71:
	movs	r2, r0
	str	r1, [r7]
	adds	r3, r7, #7
	strb	r2, [r3]
	.loc 1 345 0
	ldr	r3, [r7]
	str	r3, [r7, #12]
	.loc 1 346 0
	ldr	r3, [r7, #12]
	ldrb	r3, [r3, #4]
	adds	r2, r7, #7
	ldrb	r2, [r2]
	cmp	r2, r3
	bne	.L78
	.loc 1 349 0
	b	.L73
.L75:
	.loc 1 351 0
	ldr	r3, [r7, #12]
	ldr	r4, [r3, #24]
	ldr	r3, [r7, #12]
	movs	r0, r3
	bl	chip_uart_rx_data
	movs	r3, r0
	uxtb	r3, r3
	movs	r1, r3
	movs	r0, r4
	bl	caribou_bytequeue_put
	subs	r3, r0, #0
	bne	.L74
	.loc 1 353 0
	ldr	r3, [r7, #12]
	ldr	r3, [r3, #20]
	movs	r2, #16
	orrs	r2, r3
	ldr	r3, [r7, #12]
	str	r2, [r3, #20]
.L74:
	.loc 1 355 0
	ldr	r3, [r7, #12]
	ldr	r3, [r3, #20]
	movs	r2, #1
	orrs	r2, r3
	ldr	r3, [r7, #12]
	str	r2, [r3, #20]
.L73:
	.loc 1 349 0
	ldr	r3, [r7, #12]
	movs	r0, r3
	bl	chip_uart_rx_ready
	subs	r3, r0, #0
	bne	.L75
	.loc 1 358 0
	ldr	r3, [r7, #12]
	ldr	r3, [r3, #28]
	movs	r0, r3
	bl	caribou_bytequeue_empty
	subs	r3, r0, #0
	bne	.L76
	.loc 1 361 0
	ldr	r3, [r7, #12]
	movs	r0, r3
	bl	chip_uart_tx_ready
	subs	r3, r0, #0
	beq	.L76
	.loc 1 363 0
	ldr	r3, [r7, #12]
	ldr	r3, [r3, #28]
	movs	r0, r3
	bl	caribou_bytequeue_get
	movs	r2, r0
	ldr	r3, [r7, #12]
	movs	r1, r2
	movs	r0, r3
	bl	chip_uart_tx_data
.L76:
	.loc 1 367 0
	ldr	r3, [r7, #12]
	ldr	r3, [r3, #28]
	movs	r0, r3
	bl	caribou_bytequeue_empty
	subs	r3, r0, #0
	beq	.L77
	.loc 1 369 0
	ldr	r3, [r7, #12]
	movs	r0, r3
	bl	chip_uart_tx_stop
.L77:
	.loc 1 371 0
	ldr	r3, [r7, #12]
	ldr	r3, [r3]
	movs	r2, #8
	str	r2, [r3, #32]
.L78:
	.loc 1 373 0
	nop
	mov	sp, r7
	add	sp, sp, #20
	@ sp needed
	pop	{r4, r7, pc}
.LFE55:
	.size	isr_uart, .-isr_uart
	.section	.debug_frame,"",%progbits
.Lframe0:
	.4byte	.LECIE0-.LSCIE0
.LSCIE0:
	.4byte	0xffffffff
	.byte	0x3
	.ascii	"\000"
	.uleb128 0x1
	.sleb128 -4
	.uleb128 0xe
	.byte	0xc
	.uleb128 0xd
	.uleb128 0
	.align	2
.LECIE0:
.LSFDE0:
	.4byte	.LEFDE0-.LASFDE0
.LASFDE0:
	.4byte	.Lframe0
	.4byte	.LFB32
	.4byte	.LFE32-.LFB32
	.byte	0x4
	.4byte	.LCFI0-.LFB32
	.byte	0xe
	.uleb128 0x8
	.byte	0x87
	.uleb128 0x2
	.byte	0x8e
	.uleb128 0x1
	.byte	0x4
	.4byte	.LCFI1-.LCFI0
	.byte	0xe
	.uleb128 0x18
	.byte	0x4
	.4byte	.LCFI2-.LCFI1
	.byte	0xd
	.uleb128 0x7
	.align	2
.LEFDE0:
.LSFDE2:
	.4byte	.LEFDE2-.LASFDE2
.LASFDE2:
	.4byte	.Lframe0
	.4byte	.LFB33
	.4byte	.LFE33-.LFB33
	.byte	0x4
	.4byte	.LCFI3-.LFB33
	.byte	0xe
	.uleb128 0x8
	.byte	0x87
	.uleb128 0x2
	.byte	0x8e
	.uleb128 0x1
	.byte	0x4
	.4byte	.LCFI4-.LCFI3
	.byte	0xe
	.uleb128 0x18
	.byte	0x4
	.4byte	.LCFI5-.LCFI4
	.byte	0xd
	.uleb128 0x7
	.align	2
.LEFDE2:
.LSFDE4:
	.4byte	.LEFDE4-.LASFDE4
.LASFDE4:
	.4byte	.Lframe0
	.4byte	.LFB34
	.4byte	.LFE34-.LFB34
	.byte	0x4
	.4byte	.LCFI6-.LFB34
	.byte	0xe
	.uleb128 0x8
	.byte	0x87
	.uleb128 0x2
	.byte	0x8e
	.uleb128 0x1
	.byte	0x4
	.4byte	.LCFI7-.LCFI6
	.byte	0xe
	.uleb128 0x18
	.byte	0x4
	.4byte	.LCFI8-.LCFI7
	.byte	0xd
	.uleb128 0x7
	.align	2
.LEFDE4:
.LSFDE6:
	.4byte	.LEFDE6-.LASFDE6
.LASFDE6:
	.4byte	.Lframe0
	.4byte	.LFB35
	.4byte	.LFE35-.LFB35
	.byte	0x4
	.4byte	.LCFI9-.LFB35
	.byte	0xe
	.uleb128 0x8
	.byte	0x87
	.uleb128 0x2
	.byte	0x8e
	.uleb128 0x1
	.byte	0x4
	.4byte	.LCFI10-.LCFI9
	.byte	0xe
	.uleb128 0x18
	.byte	0x4
	.4byte	.LCFI11-.LCFI10
	.byte	0xd
	.uleb128 0x7
	.align	2
.LEFDE6:
.LSFDE8:
	.4byte	.LEFDE8-.LASFDE8
.LASFDE8:
	.4byte	.Lframe0
	.4byte	.LFB36
	.4byte	.LFE36-.LFB36
	.byte	0x4
	.4byte	.LCFI12-.LFB36
	.byte	0xe
	.uleb128 0x8
	.byte	0x87
	.uleb128 0x2
	.byte	0x8e
	.uleb128 0x1
	.byte	0x4
	.4byte	.LCFI13-.LCFI12
	.byte	0xe
	.uleb128 0x10
	.byte	0x4
	.4byte	.LCFI14-.LCFI13
	.byte	0xd
	.uleb128 0x7
	.align	2
.LEFDE8:
.LSFDE10:
	.4byte	.LEFDE10-.LASFDE10
.LASFDE10:
	.4byte	.Lframe0
	.4byte	.LFB37
	.4byte	.LFE37-.LFB37
	.byte	0x4
	.4byte	.LCFI15-.LFB37
	.byte	0xe
	.uleb128 0x8
	.byte	0x87
	.uleb128 0x2
	.byte	0x8e
	.uleb128 0x1
	.byte	0x4
	.4byte	.LCFI16-.LCFI15
	.byte	0xe
	.uleb128 0x10
	.byte	0x4
	.4byte	.LCFI17-.LCFI16
	.byte	0xd
	.uleb128 0x7
	.align	2
.LEFDE10:
.LSFDE12:
	.4byte	.LEFDE12-.LASFDE12
.LASFDE12:
	.4byte	.Lframe0
	.4byte	.LFB38
	.4byte	.LFE38-.LFB38
	.byte	0x4
	.4byte	.LCFI18-.LFB38
	.byte	0xe
	.uleb128 0x8
	.byte	0x87
	.uleb128 0x2
	.byte	0x8e
	.uleb128 0x1
	.byte	0x4
	.4byte	.LCFI19-.LCFI18
	.byte	0xe
	.uleb128 0x30
	.byte	0x4
	.4byte	.LCFI20-.LCFI19
	.byte	0xd
	.uleb128 0x7
	.align	2
.LEFDE12:
.LSFDE14:
	.4byte	.LEFDE14-.LASFDE14
.LASFDE14:
	.4byte	.Lframe0
	.4byte	.LFB39
	.4byte	.LFE39-.LFB39
	.byte	0x4
	.4byte	.LCFI21-.LFB39
	.byte	0xe
	.uleb128 0x8
	.byte	0x87
	.uleb128 0x2
	.byte	0x8e
	.uleb128 0x1
	.byte	0x4
	.4byte	.LCFI22-.LCFI21
	.byte	0xe
	.uleb128 0x10
	.byte	0x4
	.4byte	.LCFI23-.LCFI22
	.byte	0xd
	.uleb128 0x7
	.align	2
.LEFDE14:
.LSFDE16:
	.4byte	.LEFDE16-.LASFDE16
.LASFDE16:
	.4byte	.Lframe0
	.4byte	.LFB40
	.4byte	.LFE40-.LFB40
	.byte	0x4
	.4byte	.LCFI24-.LFB40
	.byte	0xe
	.uleb128 0x8
	.byte	0x87
	.uleb128 0x2
	.byte	0x8e
	.uleb128 0x1
	.byte	0x4
	.4byte	.LCFI25-.LCFI24
	.byte	0xe
	.uleb128 0x10
	.byte	0x4
	.4byte	.LCFI26-.LCFI25
	.byte	0xd
	.uleb128 0x7
	.align	2
.LEFDE16:
.LSFDE18:
	.4byte	.LEFDE18-.LASFDE18
.LASFDE18:
	.4byte	.Lframe0
	.4byte	.LFB41
	.4byte	.LFE41-.LFB41
	.byte	0x4
	.4byte	.LCFI27-.LFB41
	.byte	0xe
	.uleb128 0x8
	.byte	0x87
	.uleb128 0x2
	.byte	0x8e
	.uleb128 0x1
	.byte	0x4
	.4byte	.LCFI28-.LCFI27
	.byte	0xe
	.uleb128 0x18
	.byte	0x4
	.4byte	.LCFI29-.LCFI28
	.byte	0xd
	.uleb128 0x7
	.align	2
.LEFDE18:
.LSFDE20:
	.4byte	.LEFDE20-.LASFDE20
.LASFDE20:
	.4byte	.Lframe0
	.4byte	.LFB42
	.4byte	.LFE42-.LFB42
	.byte	0x4
	.4byte	.LCFI30-.LFB42
	.byte	0xe
	.uleb128 0x8
	.byte	0x87
	.uleb128 0x2
	.byte	0x8e
	.uleb128 0x1
	.byte	0x4
	.4byte	.LCFI31-.LCFI30
	.byte	0xe
	.uleb128 0x18
	.byte	0x4
	.4byte	.LCFI32-.LCFI31
	.byte	0xd
	.uleb128 0x7
	.align	2
.LEFDE20:
.LSFDE22:
	.4byte	.LEFDE22-.LASFDE22
.LASFDE22:
	.4byte	.Lframe0
	.4byte	.LFB43
	.4byte	.LFE43-.LFB43
	.byte	0x4
	.4byte	.LCFI33-.LFB43
	.byte	0xe
	.uleb128 0x8
	.byte	0x87
	.uleb128 0x2
	.byte	0x8e
	.uleb128 0x1
	.byte	0x4
	.4byte	.LCFI34-.LCFI33
	.byte	0xe
	.uleb128 0x18
	.byte	0x4
	.4byte	.LCFI35-.LCFI34
	.byte	0xd
	.uleb128 0x7
	.align	2
.LEFDE22:
.LSFDE24:
	.4byte	.LEFDE24-.LASFDE24
.LASFDE24:
	.4byte	.Lframe0
	.4byte	.LFB44
	.4byte	.LFE44-.LFB44
	.byte	0x4
	.4byte	.LCFI36-.LFB44
	.byte	0xe
	.uleb128 0x8
	.byte	0x87
	.uleb128 0x2
	.byte	0x8e
	.uleb128 0x1
	.byte	0x4
	.4byte	.LCFI37-.LCFI36
	.byte	0xe
	.uleb128 0x18
	.byte	0x4
	.4byte	.LCFI38-.LCFI37
	.byte	0xd
	.uleb128 0x7
	.align	2
.LEFDE24:
.LSFDE26:
	.4byte	.LEFDE26-.LASFDE26
.LASFDE26:
	.4byte	.Lframe0
	.4byte	.LFB45
	.4byte	.LFE45-.LFB45
	.byte	0x4
	.4byte	.LCFI39-.LFB45
	.byte	0xe
	.uleb128 0x8
	.byte	0x87
	.uleb128 0x2
	.byte	0x8e
	.uleb128 0x1
	.byte	0x4
	.4byte	.LCFI40-.LCFI39
	.byte	0xe
	.uleb128 0x18
	.byte	0x4
	.4byte	.LCFI41-.LCFI40
	.byte	0xd
	.uleb128 0x7
	.align	2
.LEFDE26:
.LSFDE28:
	.4byte	.LEFDE28-.LASFDE28
.LASFDE28:
	.4byte	.Lframe0
	.4byte	.LFB46
	.4byte	.LFE46-.LFB46
	.byte	0x4
	.4byte	.LCFI42-.LFB46
	.byte	0xe
	.uleb128 0x8
	.byte	0x87
	.uleb128 0x2
	.byte	0x8e
	.uleb128 0x1
	.byte	0x4
	.4byte	.LCFI43-.LCFI42
	.byte	0xe
	.uleb128 0x18
	.byte	0x4
	.4byte	.LCFI44-.LCFI43
	.byte	0xd
	.uleb128 0x7
	.align	2
.LEFDE28:
.LSFDE30:
	.4byte	.LEFDE30-.LASFDE30
.LASFDE30:
	.4byte	.Lframe0
	.4byte	.LFB47
	.4byte	.LFE47-.LFB47
	.byte	0x4
	.4byte	.LCFI45-.LFB47
	.byte	0xe
	.uleb128 0x8
	.byte	0x87
	.uleb128 0x2
	.byte	0x8e
	.uleb128 0x1
	.byte	0x4
	.4byte	.LCFI46-.LCFI45
	.byte	0xe
	.uleb128 0x18
	.byte	0x4
	.4byte	.LCFI47-.LCFI46
	.byte	0xd
	.uleb128 0x7
	.align	2
.LEFDE30:
.LSFDE32:
	.4byte	.LEFDE32-.LASFDE32
.LASFDE32:
	.4byte	.Lframe0
	.4byte	.LFB48
	.4byte	.LFE48-.LFB48
	.byte	0x4
	.4byte	.LCFI48-.LFB48
	.byte	0xe
	.uleb128 0x8
	.byte	0x87
	.uleb128 0x2
	.byte	0x8e
	.uleb128 0x1
	.byte	0x4
	.4byte	.LCFI49-.LCFI48
	.byte	0xe
	.uleb128 0x18
	.byte	0x4
	.4byte	.LCFI50-.LCFI49
	.byte	0xd
	.uleb128 0x7
	.align	2
.LEFDE32:
.LSFDE34:
	.4byte	.LEFDE34-.LASFDE34
.LASFDE34:
	.4byte	.Lframe0
	.4byte	.LFB49
	.4byte	.LFE49-.LFB49
	.byte	0x4
	.4byte	.LCFI51-.LFB49
	.byte	0xe
	.uleb128 0x8
	.byte	0x87
	.uleb128 0x2
	.byte	0x8e
	.uleb128 0x1
	.byte	0x4
	.4byte	.LCFI52-.LCFI51
	.byte	0xe
	.uleb128 0x18
	.byte	0x4
	.4byte	.LCFI53-.LCFI52
	.byte	0xd
	.uleb128 0x7
	.align	2
.LEFDE34:
.LSFDE36:
	.4byte	.LEFDE36-.LASFDE36
.LASFDE36:
	.4byte	.Lframe0
	.4byte	.LFB50
	.4byte	.LFE50-.LFB50
	.byte	0x4
	.4byte	.LCFI54-.LFB50
	.byte	0xe
	.uleb128 0x8
	.byte	0x87
	.uleb128 0x2
	.byte	0x8e
	.uleb128 0x1
	.byte	0x4
	.4byte	.LCFI55-.LCFI54
	.byte	0xe
	.uleb128 0x20
	.byte	0x4
	.4byte	.LCFI56-.LCFI55
	.byte	0xd
	.uleb128 0x7
	.align	2
.LEFDE36:
.LSFDE38:
	.4byte	.LEFDE38-.LASFDE38
.LASFDE38:
	.4byte	.Lframe0
	.4byte	.LFB51
	.4byte	.LFE51-.LFB51
	.byte	0x4
	.4byte	.LCFI57-.LFB51
	.byte	0xe
	.uleb128 0x8
	.byte	0x87
	.uleb128 0x2
	.byte	0x8e
	.uleb128 0x1
	.byte	0x4
	.4byte	.LCFI58-.LCFI57
	.byte	0xe
	.uleb128 0x18
	.byte	0x4
	.4byte	.LCFI59-.LCFI58
	.byte	0xd
	.uleb128 0x7
	.align	2
.LEFDE38:
.LSFDE40:
	.4byte	.LEFDE40-.LASFDE40
.LASFDE40:
	.4byte	.Lframe0
	.4byte	.LFB52
	.4byte	.LFE52-.LFB52
	.byte	0x4
	.4byte	.LCFI60-.LFB52
	.byte	0xe
	.uleb128 0x8
	.byte	0x87
	.uleb128 0x2
	.byte	0x8e
	.uleb128 0x1
	.byte	0x4
	.4byte	.LCFI61-.LCFI60
	.byte	0xe
	.uleb128 0x18
	.byte	0x4
	.4byte	.LCFI62-.LCFI61
	.byte	0xd
	.uleb128 0x7
	.align	2
.LEFDE40:
.LSFDE42:
	.4byte	.LEFDE42-.LASFDE42
.LASFDE42:
	.4byte	.Lframe0
	.4byte	.LFB53
	.4byte	.LFE53-.LFB53
	.byte	0x4
	.4byte	.LCFI63-.LFB53
	.byte	0xe
	.uleb128 0x8
	.byte	0x87
	.uleb128 0x2
	.byte	0x8e
	.uleb128 0x1
	.byte	0x4
	.4byte	.LCFI64-.LCFI63
	.byte	0xe
	.uleb128 0x18
	.byte	0x4
	.4byte	.LCFI65-.LCFI64
	.byte	0xd
	.uleb128 0x7
	.align	2
.LEFDE42:
.LSFDE44:
	.4byte	.LEFDE44-.LASFDE44
.LASFDE44:
	.4byte	.Lframe0
	.4byte	.LFB54
	.4byte	.LFE54-.LFB54
	.byte	0x4
	.4byte	.LCFI66-.LFB54
	.byte	0xe
	.uleb128 0x8
	.byte	0x87
	.uleb128 0x2
	.byte	0x8e
	.uleb128 0x1
	.byte	0x4
	.4byte	.LCFI67-.LCFI66
	.byte	0xe
	.uleb128 0x18
	.byte	0x4
	.4byte	.LCFI68-.LCFI67
	.byte	0xd
	.uleb128 0x7
	.align	2
.LEFDE44:
.LSFDE46:
	.4byte	.LEFDE46-.LASFDE46
.LASFDE46:
	.4byte	.Lframe0
	.4byte	.LFB55
	.4byte	.LFE55-.LFB55
	.byte	0x4
	.4byte	.LCFI69-.LFB55
	.byte	0xe
	.uleb128 0xc
	.byte	0x84
	.uleb128 0x3
	.byte	0x87
	.uleb128 0x2
	.byte	0x8e
	.uleb128 0x1
	.byte	0x4
	.4byte	.LCFI70-.LCFI69
	.byte	0xe
	.uleb128 0x20
	.byte	0x4
	.4byte	.LCFI71-.LCFI70
	.byte	0xd
	.uleb128 0x7
	.align	2
.LEFDE46:
	.text
.Letext0:
	.file 2 "/usr/share/crossworks_for_arm_3.7/include/stdint.h"
	.file 3 "../../../../include/caribou/lib/stdio.h"
	.file 4 "../../../chip/stm32/stm32f091/include/stm32f091rc/chip/vectors.h"
	.file 5 "../../../chip/stm32/stm32f091/lib/CMSIS/ST/STM32F0xx/Include/stm32f0xx.h"
	.file 6 "../../../chip/stm32/stm32f091/lib/include/stm32f0xx_usart.h"
	.file 7 "../../../../include/caribou/lib/bytequeue.h"
	.file 8 "../../../../include/caribou/dev/uart.h"