	.syntax unified
	.cpu cortex-m0
	.fpu softvfp
	.eabi_attribute 20, 1
	.eabi_attribute 21, 1
	.eabi_attribute 23, 3
	.eabi_attribute 24, 1
	.eabi_attribute 25, 1
	.eabi_attribute 26, 1
	.eabi_attribute 30, 6
	.eabi_attribute 34, 0
	.eabi_attribute 18, 4
	.thumb
	.syntax unified
	.file	"fault.c"
	.text
.Ltext0:
	.section	.text.isr_wdg,"ax",%progbits
	.align	2
	.global	isr_wdg
	.code	16
	.thumb_func
	.type	isr_wdg, %function
isr_wdg:
.LFB32:
	.file 1 "/home/mike/Documents/GitHub/caribou-rtos/caribou/target/board/nucleo_f091/crossworks/../../../chip/stm32/stm32f030/src/fault.c"
	.loc 1 21 0
	@ args = 0, pretend = 0, frame = 8
	@ frame_needed = 1, uses_anonymous_args = 0
	push	{r7, lr}
.LCFI0:
	sub	sp, sp, #8
.LCFI1:
	add	r7, sp, #0
.LCFI2:
	movs	r2, r0
	adds	r3, r7, #7
	strb	r2, [r3]
	.loc 1 22 0
	movs	r0, #127
	bl	WWDG_SetCounter
	.loc 1 23 0
	nop
	mov	sp, r7
	add	sp, sp, #8
	@ sp needed
	pop	{r7, pc}
.LFE32:
	.size	isr_wdg, .-isr_wdg
	.section	.text.fault,"ax",%progbits
	.align	2
	.global	fault
	.code	16
	.thumb_func
	.type	fault, %function
fault:
.LFB33:
	.loc 1 49 0
	@ args = 0, pretend = 0, frame = 64
	@ frame_needed = 1, uses_anonymous_args = 0
	push	{r7, lr}
.LCFI3:
	sub	sp, sp, #64
.LCFI4:
	add	r7, sp, #0
.LCFI5:
	str	r0, [r7, #4]
	.loc 1 65 0
	ldr	r3, [r7, #4]
	ldr	r3, [r3]
	str	r3, [r7, #60]
	.loc 1 66 0
	ldr	r3, [r7, #4]
	ldr	r3, [r3, #4]
	str	r3, [r7, #56]
	.loc 1 67 0
	ldr	r3, [r7, #4]
	ldr	r3, [r3, #8]
	str	r3, [r7, #52]
	.loc 1 68 0
	ldr	r3, [r7, #4]
	ldr	r3, [r3, #12]
	str	r3, [r7, #48]
	.loc 1 69 0
	ldr	r3, [r7, #4]
	ldr	r3, [r3, #16]
	str	r3, [r7, #44]
	.loc 1 70 0
	ldr	r3, [r7, #4]
	ldr	r3, [r3, #20]
	str	r3, [r7, #40]
	.loc 1 71 0
	ldr	r3, [r7, #4]
	ldr	r3, [r3, #24]
	str	r3, [r7, #36]
	.loc 1 72 0
	ldr	r3, [r7, #4]
	ldr	r3, [r3, #28]
	str	r3, [r7, #32]
	.loc 1 76 0
	ldr	r3, .L3
	ldr	r3, [r3]
	str	r3, [r7, #28]
	.loc 1 79 0
	ldr	r3, .L3+4
	ldr	r3, [r3]
	str	r3, [r7, #24]
	.loc 1 82 0
	ldr	r3, .L3+8
	ldr	r3, [r3]
	str	r3, [r7, #20]
	.loc 1 85 0
	ldr	r3, .L3+12
	ldr	r3, [r3]
	str	r3, [r7, #16]
	.loc 1 90 0
	ldr	r3, .L3+16
	ldr	r3, [r3]
	str	r3, [r7, #8]
	.loc 1 92 0
	ldr	r3, .L3+20
	ldr	r3, [r3]
	str	r3, [r7, #12]
	.loc 1 94 0
	.syntax divided
@ 94 "/home/mike/Documents/GitHub/caribou-rtos/caribou/target/board/nucleo_f091/crossworks/../../../chip/stm32/stm32f030/src/fault.c" 1
		bkpt #0

@ 0 "" 2
	.loc 1 96 0
	.thumb
	.syntax unified
	nop
	mov	sp, r7
	add	sp, sp, #64
	@ sp needed
	pop	{r7, pc}
.L4:
	.align	2
.L3:
	.word	-536810200
	.word	-536810196
	.word	-536810192
	.word	-536810180
	.word	-536810188
	.word	-536810184
.LFE33:
	.size	fault, .-fault
	.section	.text._fault,"ax",%progbits
	.align	2
	.global	_fault
	.code	16
	.thumb_func
	.type	_fault, %function
_fault:
.LFB34:
	.loc 1 106 0
	@ Naked Function: prologue and epilogue provided by programmer.
	@ args = 0, pretend = 0, frame = 0
	@ frame_needed = 1, uses_anonymous_args = 0
	.loc 1 113 0
	.syntax divided
@ 113 "/home/mike/Documents/GitHub/caribou-rtos/caribou/target/board/nucleo_f091/crossworks/../../../chip/stm32/stm32f030/src/fault.c" 1
	.syntax unified
 movs   r0, #4  
 mov	r1, lr  
 tst	r0, r1  
 beq	_msp	
 mrs	r0, psp 
 b	  fault   
_msp:  
 mrs	r0, msp 
 b	  fault   
 b	  _fault	 
.syntax divided

@ 0 "" 2
	.loc 1 125 0
	.thumb
	.syntax unified
	nop
.LFE34:
	.size	_fault, .-_fault
	.section	.debug_frame,"",%progbits
.Lframe0:
	.4byte	.LECIE0-.LSCIE0
.LSCIE0:
	.4byte	0xffffffff
	.byte	0x3
	.ascii	"\000"
	.uleb128 0x1
	.sleb128 -4
	.uleb128 0xe
	.byte	0xc
	.uleb128 0xd
	.uleb128 0
	.align	2
.LECIE0:
.LSFDE0:
	.4byte	.LEFDE0-.LASFDE0
.LASFDE0:
	.4byte	.Lframe0
	.4byte	.LFB32
	.4byte	.LFE32-.LFB32
	.byte	0x4
	.4byte	.LCFI0-.LFB32
	.byte	0xe
	.uleb128 0x8
	.byte	0x87
	.uleb128 0x2
	.byte	0x8e
	.uleb128 0x1
	.byte	0x4
	.4byte	.LCFI1-.LCFI0
	.byte	0xe
	.uleb128 0x10
	.byte	0x4
	.4byte	.LCFI2-.LCFI1
	.byte	0xd
	.uleb128 0x7
	.align	2
.LEFDE0:
.LSFDE2:
	.4byte	.LEFDE2-.LASFDE2
.LASFDE2:
	.4byte	.Lframe0
	.4byte	.LFB33
	.4byte	.LFE33-.LFB33
	.byte	0x4
	.4byte	.LCFI3-.LFB33
	.byte	0xe
	.uleb128 0x8
	.byte	0x87
	.uleb128 0x2
	.byte	0x8e
	.uleb128 0x1
	.byte	0x4
	.4byte	.LCFI4-.LCFI3
	.byte	0xe
	.uleb128 0x48
	.byte	0x4
	.4byte	.LCFI5-.LCFI4
	.byte	0xd
	.uleb128 0x7
	.align	2
.LEFDE2:
.LSFDE4:
	.4byte	.LEFDE4-.LASFDE4
.LASFDE4:
	.4byte	.Lframe0
	.4byte	.LFB34
	.4byte	.LFE34-.LFB34
	.align	2
.LEFDE4:
	.text
.Letext0:
	.file 2 "../../../chip/stm32/stm32f091/lib/CMSIS/ST/STM32F0xx/Include/stm32f0xx.h"