	.syntax unified
	.cpu cortex-m0
	.fpu softvfp
	.eabi_attribute 20, 1
	.eabi_attribute 21, 1
	.eabi_attribute 23, 3
	.eabi_attribute 24, 1
	.eabi_attribute 25, 1
	.eabi_attribute 26, 1
	.eabi_attribute 30, 6
	.eabi_attribute 34, 0
	.eabi_attribute 18, 4
	.thumb
	.syntax unified
	.file	"board.c"
	.text
.Ltext0:
	.global	led1
	.section	.data.led1,"aw",%progbits
	.align	2
	.type	led1, %object
	.size	led1, 8
led1:
	.word	1207959552
	.short	32
	.space	2
	.global	pb1
	.section	.data.pb1,"aw",%progbits
	.align	2
	.type	pb1, %object
	.size	pb1, 8
pb1:
	.word	1207961600
	.short	8192
	.space	2
	.global	outA
	.section	.data.outA,"aw",%progbits
	.align	2
	.type	outA, %object
	.size	outA, 8
outA:
	.word	1207960576
	.short	8
	.space	2
	.global	outB
	.section	.data.outB,"aw",%progbits
	.align	2
	.type	outB, %object
	.size	outB, 8
outB:
	.word	1207960576
	.short	16
	.space	2
	.global	outC
	.section	.data.outC,"aw",%progbits
	.align	2
	.type	outC, %object
	.size	outC, 8
outC:
	.word	1207960576
	.short	1024
	.space	2
	.global	outD
	.section	.data.outD,"aw",%progbits
	.align	2
	.type	outD, %object
	.size	outD, 8
outD:
	.word	1207961600
	.short	128
	.space	2
	.section	.text.CLOCK_Configuration,"ax",%progbits
	.align	2
	.code	16
	.thumb_func
	.type	CLOCK_Configuration, %function
CLOCK_Configuration:
.LFB32:
	.file 1 "/home/mike/Documents/GitHub/caribou-rtos/caribou/target/board/nucleo_f091/crossworks/../src/board.c"
	.loc 1 27 0
	@ args = 0, pretend = 0, frame = 32
	@ frame_needed = 1, uses_anonymous_args = 0
	push	{r7, lr}
.LCFI0:
	sub	sp, sp, #32
.LCFI1:
	add	r7, sp, #0
.LCFI2:
	.loc 1 29 0
	ldr	r3, .L3
	ldr	r2, .L3
	ldr	r2, [r2, #4]
	movs	r1, #128
	lsls	r1, r1, #7
	orrs	r2, r1
	str	r2, [r3, #4]
	.loc 1 34 0
	ldr	r3, .L3
	ldr	r2, .L3
	ldr	r2, [r2, #4]
	movs	r1, #160
	lsls	r1, r1, #14
	orrs	r2, r1
	str	r2, [r3, #4]
	.loc 1 35 0
	ldr	r3, .L3
	ldr	r2, .L3
	ldr	r2, [r2]
	movs	r1, #128
	lsls	r1, r1, #17
	orrs	r2, r1
	str	r2, [r3]
	.loc 1 36 0
	nop
	ldr	r3, .L3
	ldr	r3, [r3]
	.loc 1 37 0
	ldr	r3, .L3+4
	ldr	r2, .L3+4
	ldr	r2, [r2]
	movs	r1, #1
	orrs	r2, r1
	str	r2, [r3]
	.loc 1 38 0
	ldr	r3, .L3
	ldr	r2, .L3
	ldr	r2, [r2, #4]
	movs	r1, #2
	orrs	r2, r1
	str	r2, [r3, #4]
	.loc 1 39 0
	nop
.L2:
	.loc 1 39 0 is_stmt 0 discriminator 1
	ldr	r3, .L3
	ldr	r3, [r3, #4]
	movs	r2, #12
	ands	r3, r2
	cmp	r3, #8
	bne	.L2
	.loc 1 40 0 is_stmt 1
	bl	SystemCoreClockUpdate
	.loc 1 41 0
	adds	r3, r7, #4
	movs	r0, r3
	bl	RCC_GetClocksFreq
	.loc 1 42 0
	nop
	mov	sp, r7
	add	sp, sp, #32
	@ sp needed
	pop	{r7, pc}
.L4:
	.align	2
.L3:
	.word	1073876992
	.word	1073881088
.LFE32:
	.size	CLOCK_Configuration, .-CLOCK_Configuration
	.section	.text.early_init,"ax",%progbits
	.align	2
	.global	early_init
	.code	16
	.thumb_func
	.type	early_init, %function
early_init:
.LFB33:
	.loc 1 45 0
	@ args = 0, pretend = 0, frame = 0
	@ frame_needed = 1, uses_anonymous_args = 0
	push	{r7, lr}
.LCFI3:
	add	r7, sp, #0
.LCFI4:
	.loc 1 46 0
	bl	CLOCK_Configuration
	.loc 1 48 0
	ldr	r3, .L6
	ldr	r2, .L6
	ldr	r2, [r2, #20]
	ldr	r1, .L6+4
	orrs	r2, r1
	str	r2, [r3, #20]
	.loc 1 55 0
	ldr	r3, .L6
	ldr	r2, .L6
	ldr	r2, [r2, #28]
	ldr	r1, .L6+8
	orrs	r2, r1
	str	r2, [r3, #28]
	.loc 1 60 0
	ldr	r3, .L6
	ldr	r2, .L6
	ldr	r2, [r2, #24]
	movs	r1, #148
	lsls	r1, r1, #7
	orrs	r2, r1
	str	r2, [r3, #24]
	.loc 1 65 0
	movs	r3, #144
	lsls	r3, r3, #23
	ldr	r2, .L6+12
	str	r2, [r3]
	.loc 1 66 0
	movs	r3, #144
	lsls	r3, r3, #23
	movs	r2, #0
	strh	r2, [r3, #4]
	.loc 1 67 0
	movs	r3, #144
	lsls	r3, r3, #23
	ldr	r2, .L6+16
	str	r2, [r3, #8]
	.loc 1 68 0
	movs	r3, #144
	lsls	r3, r3, #23
	movs	r2, #144
	lsls	r2, r2, #22
	str	r2, [r3, #12]
	.loc 1 69 0
	movs	r3, #144
	lsls	r3, r3, #23
	movs	r2, #0
	str	r2, [r3, #32]
	.loc 1 70 0
	movs	r3, #144
	lsls	r3, r3, #23
	movs	r2, #0
	str	r2, [r3, #36]
	.loc 1 72 0
	ldr	r3, .L6+20
	ldr	r2, .L6+24
	str	r2, [r3]
	.loc 1 73 0
	ldr	r3, .L6+20
	movs	r2, #0
	strh	r2, [r3, #4]
	.loc 1 74 0
	ldr	r3, .L6+20
	ldr	r2, .L6+28
	str	r2, [r3, #8]
	.loc 1 75 0
	ldr	r3, .L6+20
	movs	r2, #0
	str	r2, [r3, #12]
	.loc 1 76 0
	ldr	r3, .L6+20
	movs	r2, #0
	str	r2, [r3, #32]
	.loc 1 77 0
	ldr	r3, .L6+20
	movs	r2, #0
	str	r2, [r3, #36]
	.loc 1 79 0
	ldr	r3, .L6+32
	movs	r2, #128
	lsls	r2, r2, #7
	str	r2, [r3]
	.loc 1 80 0
	ldr	r3, .L6+32
	movs	r2, #0
	strh	r2, [r3, #4]
	.loc 1 81 0
	ldr	r3, .L6+32
	ldr	r2, .L6+28
	str	r2, [r3, #8]
	.loc 1 82 0
	ldr	r3, .L6+32
	movs	r2, #0
	str	r2, [r3, #12]
	.loc 1 83 0
	ldr	r3, .L6+32
	movs	r2, #0
	str	r2, [r3, #32]
	.loc 1 84 0
	ldr	r3, .L6+32
	movs	r2, #0
	str	r2, [r3, #36]
	.loc 1 86 0
	ldr	r3, .L6+36
	movs	r2, #0
	str	r2, [r3]
	.loc 1 87 0
	ldr	r3, .L6+36
	movs	r2, #0
	strh	r2, [r3, #4]
	.loc 1 88 0
	ldr	r3, .L6+36
	ldr	r2, .L6+28
	str	r2, [r3, #8]
	.loc 1 89 0
	ldr	r3, .L6+36
	movs	r2, #0
	str	r2, [r3, #12]
	.loc 1 90 0
	ldr	r3, .L6+36
	movs	r2, #0
	str	r2, [r3, #32]
	.loc 1 91 0
	ldr	r3, .L6+36
	movs	r2, #0
	str	r2, [r3, #36]
	.loc 1 93 0
	ldr	r3, .L6+40
	movs	r2, #0
	str	r2, [r3]
	.loc 1 94 0
	ldr	r3, .L6+40
	movs	r2, #0
	strh	r2, [r3, #4]
	.loc 1 95 0
	ldr	r3, .L6+40
	ldr	r2, .L6+28
	str	r2, [r3, #8]
	.loc 1 96 0
	ldr	r3, .L6+40
	movs	r2, #0
	str	r2, [r3, #12]
	.loc 1 97 0
	ldr	r3, .L6+40
	movs	r2, #0
	str	r2, [r3, #32]
	.loc 1 98 0
	ldr	r3, .L6+40
	movs	r2, #0
	str	r2, [r3, #36]
	.loc 1 100 0
	ldr	r3, .L6+44
	ldr	r2, [r3]
	ldr	r3, .L6+44
	ldrh	r3, [r3, #4]
	movs	r1, r3
	movs	r0, r2
	bl	chip_gpio_reset
	.loc 1 101 0
	ldr	r3, .L6+48
	ldr	r2, [r3]
	ldr	r3, .L6+48
	ldrh	r3, [r3, #4]
	movs	r1, r3
	movs	r0, r2
	bl	chip_gpio_reset
	.loc 1 102 0
	ldr	r3, .L6+52
	ldr	r2, [r3]
	ldr	r3, .L6+52
	ldrh	r3, [r3, #4]
	movs	r1, r3
	movs	r0, r2
	bl	chip_gpio_reset
	.loc 1 103 0
	ldr	r3, .L6+56
	ldr	r2, [r3]
	ldr	r3, .L6+56
	ldrh	r3, [r3, #4]
	movs	r1, r3
	movs	r0, r2
	bl	chip_gpio_reset
	.loc 1 104 0
	nop
	mov	sp, r7
	@ sp needed
	pop	{r7, pc}
.L7:
	.align	2
.L6:
	.word	1073876992
	.word	6160385
	.word	270534658
	.word	671089664
	.word	-1767200086
	.word	1207960576
	.word	1048896
	.word	-1431655766
	.word	1207961600
	.word	1207962624
	.word	1207964672
	.word	outA
	.word	outB
	.word	outC
	.word	outD
.LFE33:
	.size	early_init, .-early_init
	.section	.rodata.str1.4,"aMS",%progbits,1
	.align	2
.LC4:
	.ascii	"rw\000"
	.section	.text.late_init,"ax",%progbits
	.align	2
	.global	late_init
	.code	16
	.thumb_func
	.type	late_init, %function
late_init:
.LFB34:
	.loc 1 107 0
	@ args = 0, pretend = 0, frame = 16
	@ frame_needed = 1, uses_anonymous_args = 0
	push	{r7, lr}
.LCFI5:
	sub	sp, sp, #16
.LCFI6:
	add	r7, sp, #0
.LCFI7:
	.loc 1 109 0
	ldr	r3, .L9
	movs	r1, r3
	movs	r0, #0
	bl	fopen
	movs	r2, r0
	ldr	r3, .L9+4
	str	r2, [r3]
	ldr	r3, .L9+4
	ldr	r2, [r3]
	ldr	r3, .L9+8
	str	r2, [r3]
	ldr	r3, .L9+8
	ldr	r2, [r3]
	ldr	r3, .L9+12
	str	r2, [r3]
	.loc 1 110 0
	adds	r3, r7, #4
	movs	r0, r3
	bl	caribou_uart_init_config
	.loc 1 111 0
	adds	r3, r7, #4
	movs	r2, #225
	lsls	r2, r2, #9
	str	r2, [r3]
	.loc 1 112 0
	adds	r3, r7, #4
	movs	r2, #3
	strb	r2, [r3, #7]
	.loc 1 113 0
	adds	r3, r7, #4
	movs	r1, r3
	movs	r0, #0
	bl	caribou_uart_set_config
	.loc 1 114 0
	nop
	mov	sp, r7
	add	sp, sp, #16
	@ sp needed
	pop	{r7, pc}
.L10:
	.align	2
.L9:
	.word	.LC4
	.word	_stderr
	.word	_stdin
	.word	_stdout
.LFE34:
	.size	late_init, .-late_init
	.section	.text.notify_heap_alloc_failed,"ax",%progbits
	.align	2
	.global	notify_heap_alloc_failed
	.code	16
	.thumb_func
	.type	notify_heap_alloc_failed, %function
notify_heap_alloc_failed:
.LFB35:
	.loc 1 121 0
	@ args = 0, pretend = 0, frame = 8
	@ frame_needed = 1, uses_anonymous_args = 0
	push	{r7, lr}
.LCFI8:
	sub	sp, sp, #8
.LCFI9:
	add	r7, sp, #0
.LCFI10:
	str	r0, [r7, #4]
.L12:
	.loc 1 122 0 discriminator 1
	b	.L12
.LFE35:
	.size	notify_heap_alloc_failed, .-notify_heap_alloc_failed
	.section	.debug_frame,"",%progbits
.Lframe0:
	.4byte	.LECIE0-.LSCIE0
.LSCIE0:
	.4byte	0xffffffff
	.byte	0x3
	.ascii	"\000"
	.uleb128 0x1
	.sleb128 -4
	.uleb128 0xe
	.byte	0xc
	.uleb128 0xd
	.uleb128 0
	.align	2
.LECIE0:
.LSFDE0:
	.4byte	.LEFDE0-.LASFDE0
.LASFDE0:
	.4byte	.Lframe0
	.4byte	.LFB32
	.4byte	.LFE32-.LFB32
	.byte	0x4
	.4byte	.LCFI0-.LFB32
	.byte	0xe
	.uleb128 0x8
	.byte	0x87
	.uleb128 0x2
	.byte	0x8e
	.uleb128 0x1
	.byte	0x4
	.4byte	.LCFI1-.LCFI0
	.byte	0xe
	.uleb128 0x28
	.byte	0x4
	.4byte	.LCFI2-.LCFI1
	.byte	0xd
	.uleb128 0x7
	.align	2
.LEFDE0:
.LSFDE2:
	.4byte	.LEFDE2-.LASFDE2
.LASFDE2:
	.4byte	.Lframe0
	.4byte	.LFB33
	.4byte	.LFE33-.LFB33
	.byte	0x4
	.4byte	.LCFI3-.LFB33
	.byte	0xe
	.uleb128 0x8
	.byte	0x87
	.uleb128 0x2
	.byte	0x8e
	.uleb128 0x1
	.byte	0x4
	.4byte	.LCFI4-.LCFI3
	.byte	0xd
	.uleb128 0x7
	.align	2
.LEFDE2:
.LSFDE4:
	.4byte	.LEFDE4-.LASFDE4
.LASFDE4:
	.4byte	.Lframe0
	.4byte	.LFB34
	.4byte	.LFE34-.LFB34
	.byte	0x4
	.4byte	.LCFI5-.LFB34
	.byte	0xe
	.uleb128 0x8
	.byte	0x87
	.uleb128 0x2
	.byte	0x8e
	.uleb128 0x1
	.byte	0x4
	.4byte	.LCFI6-.LCFI5
	.byte	0xe
	.uleb128 0x18
	.byte	0x4
	.4byte	.LCFI7-.LCFI6
	.byte	0xd
	.uleb128 0x7
	.align	2
.LEFDE4:
.LSFDE6:
	.4byte	.LEFDE6-.LASFDE6
.LASFDE6:
	.4byte	.Lframe0
	.4byte	.LFB35
	.4byte	.LFE35-.LFB35
	.byte	0x4
	.4byte	.LCFI8-.LFB35
	.byte	0xe
	.uleb128 0x8
	.byte	0x87
	.uleb128 0x2
	.byte	0x8e
	.uleb128 0x1
	.byte	0x4
	.4byte	.LCFI9-.LCFI8
	.byte	0xe
	.uleb128 0x10
	.byte	0x4
	.4byte	.LCFI10-.LCFI9
	.byte	0xd
	.uleb128 0x7
	.align	2
.LEFDE6:
	.text
.Letext0:
	.file 2 "/usr/share/crossworks_for_arm_3.7/include/stdint.h"
	.file 3 "/usr/share/crossworks_for_arm_3.7/include/stddef.h"
	.file 4 "../../../chip/stm32/stm32f091/lib/CMSIS/ST/STM32F0xx/Include/stm32f0xx.h"
	.file 5 "../../../chip/stm32/stm32f091/lib/include/stm32f0xx_gpio.h"
	.file 6 "../../../chip/stm32/stm32f091/lib/include/stm32f0xx_rcc.h"
	.file 7 "../../../../include/caribou/lib/stdio.h"
	.file 8 "../../../../include/caribou/dev/gpio.h"
	.file 9 "../../../../include/caribou/dev/uart.h"