	.syntax unified
	.cpu cortex-m0
	.fpu softvfp
	.eabi_attribute 20, 1
	.eabi_attribute 21, 1
	.eabi_attribute 23, 3
	.eabi_attribute 24, 1
	.eabi_attribute 25, 1
	.eabi_attribute 26, 1
	.eabi_attribute 30, 6
	.eabi_attribute 34, 0
	.eabi_attribute 18, 4
	.thumb
	.syntax unified
	.file	"stm32f0xx_misc.c"
	.text
.Ltext0:
	.section	.text.NVIC_Init,"ax",%progbits
	.align	2
	.global	NVIC_Init
	.code	16
	.thumb_func
	.type	NVIC_Init, %function
NVIC_Init:
.LFB32:
	.file 1 "/home/mike/Documents/GitHub/caribou-rtos/caribou/target/board/nucleo_f091/crossworks/../../../chip/stm32/stm32f030/lib/src/stm32f0xx_misc.c"
	.loc 1 80 0
	@ args = 0, pretend = 0, frame = 16
	@ frame_needed = 1, uses_anonymous_args = 0
	push	{r7, lr}
.LCFI0:
	sub	sp, sp, #16
.LCFI1:
	add	r7, sp, #0
.LCFI2:
	str	r0, [r7, #4]
	.loc 1 81 0
	movs	r3, #0
	str	r3, [r7, #12]
	.loc 1 87 0
	ldr	r3, [r7, #4]
	ldrb	r3, [r3, #2]
	cmp	r3, #0
	beq	.L2
	.loc 1 90 0
	ldr	r2, .L5
	ldr	r3, [r7, #4]
	ldrb	r3, [r3]
	lsrs	r3, r3, #2
	uxtb	r3, r3
	adds	r3, r3, #192
	lsls	r3, r3, #2
	ldr	r3, [r3, r2]
	str	r3, [r7, #12]
	.loc 1 91 0
	ldr	r3, [r7, #4]
	ldrb	r3, [r3]
	movs	r2, r3
	movs	r3, #3
	ands	r3, r2
	lsls	r3, r3, #3
	movs	r2, #255
	lsls	r2, r2, r3
	movs	r3, r2
	mvns	r2, r3
	ldr	r3, [r7, #12]
	ands	r3, r2
	str	r3, [r7, #12]
	.loc 1 92 0
	ldr	r3, [r7, #4]
	ldrb	r3, [r3, #1]
	lsls	r3, r3, #6
	movs	r2, #255
	ands	r2, r3
	ldr	r3, [r7, #4]
	ldrb	r3, [r3]
	movs	r1, r3
	movs	r3, #3
	ands	r3, r1
	lsls	r3, r3, #3
	lsls	r2, r2, r3
	movs	r3, r2
	ldr	r2, [r7, #12]
	orrs	r3, r2
	str	r3, [r7, #12]
	.loc 1 94 0
	ldr	r1, .L5
	ldr	r3, [r7, #4]
	ldrb	r3, [r3]
	lsrs	r3, r3, #2
	uxtb	r3, r3
	adds	r3, r3, #192
	lsls	r3, r3, #2
	ldr	r2, [r7, #12]
	str	r2, [r3, r1]
	.loc 1 97 0
	ldr	r3, .L5
	ldr	r2, [r7, #4]
	ldrb	r2, [r2]
	movs	r1, r2
	movs	r2, #31
	ands	r2, r1
	movs	r1, #1
	lsls	r1, r1, r2
	movs	r2, r1
	str	r2, [r3]
	.loc 1 104 0
	b	.L4
.L2:
	.loc 1 102 0
	ldr	r1, .L5
	ldr	r3, [r7, #4]
	ldrb	r3, [r3]
	movs	r2, r3
	movs	r3, #31
	ands	r3, r2
	movs	r2, #1
	lsls	r2, r2, r3
	movs	r3, r2
	movs	r2, #128
	str	r3, [r1, r2]
.L4:
	.loc 1 104 0
	nop
	mov	sp, r7
	add	sp, sp, #16
	@ sp needed
	pop	{r7, pc}
.L6:
	.align	2
.L5:
	.word	-536813312
.LFE32:
	.size	NVIC_Init, .-NVIC_Init
	.section	.text.NVIC_SystemLPConfig,"ax",%progbits
	.align	2
	.global	NVIC_SystemLPConfig
	.code	16
	.thumb_func
	.type	NVIC_SystemLPConfig, %function
NVIC_SystemLPConfig:
.LFB33:
	.loc 1 118 0
	@ args = 0, pretend = 0, frame = 8
	@ frame_needed = 1, uses_anonymous_args = 0
	push	{r7, lr}
.LCFI3:
	sub	sp, sp, #8
.LCFI4:
	add	r7, sp, #0
.LCFI5:
	movs	r2, r0
	adds	r3, r7, #7
	strb	r2, [r3]
	adds	r3, r7, #6
	adds	r2, r1, #0
	strb	r2, [r3]
	.loc 1 124 0
	adds	r3, r7, #6
	ldrb	r3, [r3]
	cmp	r3, #0
	beq	.L8
	.loc 1 126 0
	ldr	r3, .L11
	ldr	r2, .L11
	ldr	r1, [r2, #16]
	adds	r2, r7, #7
	ldrb	r2, [r2]
	orrs	r2, r1
	str	r2, [r3, #16]
	.loc 1 132 0
	b	.L10
.L8:
	.loc 1 130 0
	ldr	r3, .L11
	ldr	r2, .L11
	ldr	r2, [r2, #16]
	adds	r1, r7, #7
	ldrb	r1, [r1]
	mvns	r1, r1
	ands	r2, r1
	str	r2, [r3, #16]
.L10:
	.loc 1 132 0
	nop
	mov	sp, r7
	add	sp, sp, #8
	@ sp needed
	pop	{r7, pc}
.L12:
	.align	2
.L11:
	.word	-536810240
.LFE33:
	.size	NVIC_SystemLPConfig, .-NVIC_SystemLPConfig
	.section	.text.SysTick_CLKSourceConfig,"ax",%progbits
	.align	2
	.global	SysTick_CLKSourceConfig
	.code	16
	.thumb_func
	.type	SysTick_CLKSourceConfig, %function
SysTick_CLKSourceConfig:
.LFB34:
	.loc 1 143 0
	@ args = 0, pretend = 0, frame = 8
	@ frame_needed = 1, uses_anonymous_args = 0
	push	{r7, lr}
.LCFI6:
	sub	sp, sp, #8
.LCFI7:
	add	r7, sp, #0
.LCFI8:
	str	r0, [r7, #4]
	.loc 1 147 0
	ldr	r3, [r7, #4]
	cmp	r3, #4
	bne	.L14
	.loc 1 149 0
	ldr	r3, .L17
	ldr	r2, .L17
	ldr	r2, [r2]
	movs	r1, #4
	orrs	r2, r1
	str	r2, [r3]
	.loc 1 155 0
	b	.L16
.L14:
	.loc 1 153 0
	ldr	r3, .L17
	ldr	r2, .L17
	ldr	r2, [r2]
	movs	r1, #4
	bics	r2, r1
	str	r2, [r3]
.L16:
	.loc 1 155 0
	nop
	mov	sp, r7
	add	sp, sp, #8
	@ sp needed
	pop	{r7, pc}
.L18:
	.align	2
.L17:
	.word	-536813552
.LFE34:
	.size	SysTick_CLKSourceConfig, .-SysTick_CLKSourceConfig
	.section	.debug_frame,"",%progbits
.Lframe0:
	.4byte	.LECIE0-.LSCIE0
.LSCIE0:
	.4byte	0xffffffff
	.byte	0x3
	.ascii	"\000"
	.uleb128 0x1
	.sleb128 -4
	.uleb128 0xe
	.byte	0xc
	.uleb128 0xd
	.uleb128 0
	.align	2
.LECIE0:
.LSFDE0:
	.4byte	.LEFDE0-.LASFDE0
.LASFDE0:
	.4byte	.Lframe0
	.4byte	.LFB32
	.4byte	.LFE32-.LFB32
	.byte	0x4
	.4byte	.LCFI0-.LFB32
	.byte	0xe
	.uleb128 0x8
	.byte	0x87
	.uleb128 0x2
	.byte	0x8e
	.uleb128 0x1
	.byte	0x4
	.4byte	.LCFI1-.LCFI0
	.byte	0xe
	.uleb128 0x18
	.byte	0x4
	.4byte	.LCFI2-.LCFI1
	.byte	0xd
	.uleb128 0x7
	.align	2
.LEFDE0:
.LSFDE2:
	.4byte	.LEFDE2-.LASFDE2
.LASFDE2:
	.4byte	.Lframe0
	.4byte	.LFB33
	.4byte	.LFE33-.LFB33
	.byte	0x4
	.4byte	.LCFI3-.LFB33
	.byte	0xe
	.uleb128 0x8
	.byte	0x87
	.uleb128 0x2
	.byte	0x8e
	.uleb128 0x1
	.byte	0x4
	.4byte	.LCFI4-.LCFI3
	.byte	0xe
	.uleb128 0x10
	.byte	0x4
	.4byte	.LCFI5-.LCFI4
	.byte	0xd
	.uleb128 0x7
	.align	2
.LEFDE2:
.LSFDE4:
	.4byte	.LEFDE4-.LASFDE4
.LASFDE4:
	.4byte	.Lframe0
	.4byte	.LFB34
	.4byte	.LFE34-.LFB34
	.byte	0x4
	.4byte	.LCFI6-.LFB34
	.byte	0xe
	.uleb128 0x8
	.byte	0x87
	.uleb128 0x2
	.byte	0x8e
	.uleb128 0x1
	.byte	0x4
	.4byte	.LCFI7-.LCFI6
	.byte	0xe
	.uleb128 0x10
	.byte	0x4
	.4byte	.LCFI8-.LCFI7
	.byte	0xd
	.uleb128 0x7
	.align	2
.LEFDE4:
	.text
.Letext0:
	.file 2 "/usr/share/crossworks_for_arm_3.7/include/stdint.h"
	.file 3 "../../../chip/stm32/stm32f091/lib/CMSIS/Include/core_cm0.h"
	.file 4 "../../../chip/stm32/stm32f091/lib/CMSIS/ST/STM32F0xx/Include/stm32f0xx.h"
	.file 5 "../../../chip/stm32/stm32f091/lib/include/stm32f0xx_misc.h"