	.syntax unified
	.cpu cortex-m0
	.fpu softvfp
	.eabi_attribute 20, 1
	.eabi_attribute 21, 1
	.eabi_attribute 23, 3
	.eabi_attribute 24, 1
	.eabi_attribute 25, 1
	.eabi_attribute 26, 1
	.eabi_attribute 30, 6
	.eabi_attribute 34, 0
	.eabi_attribute 18, 4
	.thumb
	.syntax unified
	.file	"stm32f0xx_crc.c"
	.text
.Ltext0:
	.section	.text.CRC_DeInit,"ax",%progbits
	.align	2
	.global	CRC_DeInit
	.code	16
	.thumb_func
	.type	CRC_DeInit, %function
CRC_DeInit:
.LFB32:
	.file 1 "/home/mike/Documents/GitHub/caribou-rtos/caribou/target/board/nucleo_f091/crossworks/../../../chip/stm32/stm32f030/lib/src/stm32f0xx_crc.c"
	.loc 1 95 0
	@ args = 0, pretend = 0, frame = 0
	@ frame_needed = 1, uses_anonymous_args = 0
	push	{r7, lr}
.LCFI0:
	add	r7, sp, #0
.LCFI1:
	.loc 1 97 0
	ldr	r3, .L2
	movs	r2, #1
	rsbs	r2, r2, #0
	str	r2, [r3]
	.loc 1 99 0
	ldr	r3, .L2
	movs	r2, #0
	strb	r2, [r3, #4]
	.loc 1 101 0
	ldr	r3, .L2
	movs	r2, #1
	rsbs	r2, r2, #0
	str	r2, [r3, #16]
	.loc 1 103 0
	ldr	r3, .L2
	movs	r2, #1
	str	r2, [r3, #8]
	.loc 1 104 0
	nop
	mov	sp, r7
	@ sp needed
	pop	{r7, pc}
.L3:
	.align	2
.L2:
	.word	1073885184
.LFE32:
	.size	CRC_DeInit, .-CRC_DeInit
	.section	.text.CRC_ResetDR,"ax",%progbits
	.align	2
	.global	CRC_ResetDR
	.code	16
	.thumb_func
	.type	CRC_ResetDR, %function
CRC_ResetDR:
.LFB33:
	.loc 1 112 0
	@ args = 0, pretend = 0, frame = 0
	@ frame_needed = 1, uses_anonymous_args = 0
	push	{r7, lr}
.LCFI2:
	add	r7, sp, #0
.LCFI3:
	.loc 1 114 0
	ldr	r3, .L5
	movs	r2, #1
	str	r2, [r3, #8]
	.loc 1 115 0
	nop
	mov	sp, r7
	@ sp needed
	pop	{r7, pc}
.L6:
	.align	2
.L5:
	.word	1073885184
.LFE33:
	.size	CRC_ResetDR, .-CRC_ResetDR
	.section	.text.CRC_ReverseInputDataSelect,"ax",%progbits
	.align	2
	.global	CRC_ReverseInputDataSelect
	.code	16
	.thumb_func
	.type	CRC_ReverseInputDataSelect, %function
CRC_ReverseInputDataSelect:
.LFB34:
	.loc 1 128 0
	@ args = 0, pretend = 0, frame = 16
	@ frame_needed = 1, uses_anonymous_args = 0
	push	{r7, lr}
.LCFI4:
	sub	sp, sp, #16
.LCFI5:
	add	r7, sp, #0
.LCFI6:
	str	r0, [r7, #4]
	.loc 1 129 0
	movs	r3, #0
	str	r3, [r7, #12]
	.loc 1 135 0
	ldr	r3, .L8
	ldr	r3, [r3, #8]
	str	r3, [r7, #12]
	.loc 1 138 0
	ldr	r3, [r7, #12]
	movs	r2, #96
	bics	r3, r2
	str	r3, [r7, #12]
	.loc 1 140 0
	ldr	r2, [r7, #12]
	ldr	r3, [r7, #4]
	orrs	r3, r2
	str	r3, [r7, #12]
	.loc 1 143 0
	ldr	r3, .L8
	ldr	r2, [r7, #12]
	str	r2, [r3, #8]
	.loc 1 144 0
	nop
	mov	sp, r7
	add	sp, sp, #16
	@ sp needed
	pop	{r7, pc}
.L9:
	.align	2
.L8:
	.word	1073885184
.LFE34:
	.size	CRC_ReverseInputDataSelect, .-CRC_ReverseInputDataSelect
	.section	.text.CRC_ReverseOutputDataCmd,"ax",%progbits
	.align	2
	.global	CRC_ReverseOutputDataCmd
	.code	16
	.thumb_func
	.type	CRC_ReverseOutputDataCmd, %function
CRC_ReverseOutputDataCmd:
.LFB35:
	.loc 1 154 0
	@ args = 0, pretend = 0, frame = 8
	@ frame_needed = 1, uses_anonymous_args = 0
	push	{r7, lr}
.LCFI7:
	sub	sp, sp, #8
.LCFI8:
	add	r7, sp, #0
.LCFI9:
	movs	r2, r0
	adds	r3, r7, #7
	strb	r2, [r3]
	.loc 1 158 0
	adds	r3, r7, #7
	ldrb	r3, [r3]
	cmp	r3, #0
	beq	.L11
	.loc 1 161 0
	ldr	r3, .L14
	ldr	r2, .L14
	ldr	r2, [r2, #8]
	movs	r1, #128
	orrs	r2, r1
	str	r2, [r3, #8]
	.loc 1 168 0
	b	.L13
.L11:
	.loc 1 166 0
	ldr	r3, .L14
	ldr	r2, .L14
	ldr	r2, [r2, #8]
	movs	r1, #128
	bics	r2, r1
	str	r2, [r3, #8]
.L13:
	.loc 1 168 0
	nop
	mov	sp, r7
	add	sp, sp, #8
	@ sp needed
	pop	{r7, pc}
.L15:
	.align	2
.L14:
	.word	1073885184
.LFE35:
	.size	CRC_ReverseOutputDataCmd, .-CRC_ReverseOutputDataCmd
	.section	.text.CRC_SetInitRegister,"ax",%progbits
	.align	2
	.global	CRC_SetInitRegister
	.code	16
	.thumb_func
	.type	CRC_SetInitRegister, %function
CRC_SetInitRegister:
.LFB36:
	.loc 1 177 0
	@ args = 0, pretend = 0, frame = 8
	@ frame_needed = 1, uses_anonymous_args = 0
	push	{r7, lr}
.LCFI10:
	sub	sp, sp, #8
.LCFI11:
	add	r7, sp, #0
.LCFI12:
	str	r0, [r7, #4]
	.loc 1 178 0
	ldr	r3, .L17
	ldr	r2, [r7, #4]
	str	r2, [r3, #16]
	.loc 1 179 0
	nop
	mov	sp, r7
	add	sp, sp, #8
	@ sp needed
	pop	{r7, pc}
.L18:
	.align	2
.L17:
	.word	1073885184
.LFE36:
	.size	CRC_SetInitRegister, .-CRC_SetInitRegister
	.section	.text.CRC_CalcCRC,"ax",%progbits
	.align	2
	.global	CRC_CalcCRC
	.code	16
	.thumb_func
	.type	CRC_CalcCRC, %function
CRC_CalcCRC:
.LFB37:
	.loc 1 203 0
	@ args = 0, pretend = 0, frame = 8
	@ frame_needed = 1, uses_anonymous_args = 0
	push	{r7, lr}
.LCFI13:
	sub	sp, sp, #8
.LCFI14:
	add	r7, sp, #0
.LCFI15:
	str	r0, [r7, #4]
	.loc 1 204 0
	ldr	r3, .L21
	ldr	r2, [r7, #4]
	str	r2, [r3]
	.loc 1 206 0
	ldr	r3, .L21
	ldr	r3, [r3]
	.loc 1 207 0
	movs	r0, r3
	mov	sp, r7
	add	sp, sp, #8
	@ sp needed
	pop	{r7, pc}
.L22:
	.align	2
.L21:
	.word	1073885184
.LFE37:
	.size	CRC_CalcCRC, .-CRC_CalcCRC
	.section	.text.CRC_CalcBlockCRC,"ax",%progbits
	.align	2
	.global	CRC_CalcBlockCRC
	.code	16
	.thumb_func
	.type	CRC_CalcBlockCRC, %function
CRC_CalcBlockCRC:
.LFB38:
	.loc 1 216 0
	@ args = 0, pretend = 0, frame = 16
	@ frame_needed = 1, uses_anonymous_args = 0
	push	{r7, lr}
.LCFI16:
	sub	sp, sp, #16
.LCFI17:
	add	r7, sp, #0
.LCFI18:
	str	r0, [r7, #4]
	str	r1, [r7]
	.loc 1 217 0
	movs	r3, #0
	str	r3, [r7, #12]
	.loc 1 219 0
	movs	r3, #0
	str	r3, [r7, #12]
	b	.L24
.L25:
	.loc 1 221 0 discriminator 3
	ldr	r2, .L27
	ldr	r3, [r7, #12]
	lsls	r3, r3, #2
	ldr	r1, [r7, #4]
	adds	r3, r1, r3
	ldr	r3, [r3]
	str	r3, [r2]
	.loc 1 219 0 discriminator 3
	ldr	r3, [r7, #12]
	adds	r3, r3, #1
	str	r3, [r7, #12]
.L24:
	.loc 1 219 0 is_stmt 0 discriminator 1
	ldr	r2, [r7, #12]
	ldr	r3, [r7]
	cmp	r2, r3
	bcc	.L25
	.loc 1 223 0 is_stmt 1
	ldr	r3, .L27
	ldr	r3, [r3]
	.loc 1 224 0
	movs	r0, r3
	mov	sp, r7
	add	sp, sp, #16
	@ sp needed
	pop	{r7, pc}
.L28:
	.align	2
.L27:
	.word	1073885184
.LFE38:
	.size	CRC_CalcBlockCRC, .-CRC_CalcBlockCRC
	.section	.text.CRC_GetCRC,"ax",%progbits
	.align	2
	.global	CRC_GetCRC
	.code	16
	.thumb_func
	.type	CRC_GetCRC, %function
CRC_GetCRC:
.LFB39:
	.loc 1 232 0
	@ args = 0, pretend = 0, frame = 0
	@ frame_needed = 1, uses_anonymous_args = 0
	push	{r7, lr}
.LCFI19:
	add	r7, sp, #0
.LCFI20:
	.loc 1 233 0
	ldr	r3, .L31
	ldr	r3, [r3]
	.loc 1 234 0
	movs	r0, r3
	mov	sp, r7
	@ sp needed
	pop	{r7, pc}
.L32:
	.align	2
.L31:
	.word	1073885184
.LFE39:
	.size	CRC_GetCRC, .-CRC_GetCRC
	.section	.text.CRC_SetIDRegister,"ax",%progbits
	.align	2
	.global	CRC_SetIDRegister
	.code	16
	.thumb_func
	.type	CRC_SetIDRegister, %function
CRC_SetIDRegister:
.LFB40:
	.loc 1 258 0
	@ args = 0, pretend = 0, frame = 8
	@ frame_needed = 1, uses_anonymous_args = 0
	push	{r7, lr}
.LCFI21:
	sub	sp, sp, #8
.LCFI22:
	add	r7, sp, #0
.LCFI23:
	movs	r2, r0
	adds	r3, r7, #7
	strb	r2, [r3]
	.loc 1 259 0
	ldr	r2, .L34
	adds	r3, r7, #7
	ldrb	r3, [r3]
	strb	r3, [r2, #4]
	.loc 1 260 0
	nop
	mov	sp, r7
	add	sp, sp, #8
	@ sp needed
	pop	{r7, pc}
.L35:
	.align	2
.L34:
	.word	1073885184
.LFE40:
	.size	CRC_SetIDRegister, .-CRC_SetIDRegister
	.section	.text.CRC_GetIDRegister,"ax",%progbits
	.align	2
	.global	CRC_GetIDRegister
	.code	16
	.thumb_func
	.type	CRC_GetIDRegister, %function
CRC_GetIDRegister:
.LFB41:
	.loc 1 268 0
	@ args = 0, pretend = 0, frame = 0
	@ frame_needed = 1, uses_anonymous_args = 0
	push	{r7, lr}
.LCFI24:
	add	r7, sp, #0
.LCFI25:
	.loc 1 269 0
	ldr	r3, .L38
	ldrb	r3, [r3, #4]
	uxtb	r3, r3
	.loc 1 270 0
	movs	r0, r3
	mov	sp, r7
	@ sp needed
	pop	{r7, pc}
.L39:
	.align	2
.L38:
	.word	1073885184
.LFE41:
	.size	CRC_GetIDRegister, .-CRC_GetIDRegister
	.section	.debug_frame,"",%progbits
.Lframe0:
	.4byte	.LECIE0-.LSCIE0
.LSCIE0:
	.4byte	0xffffffff
	.byte	0x3
	.ascii	"\000"
	.uleb128 0x1
	.sleb128 -4
	.uleb128 0xe
	.byte	0xc
	.uleb128 0xd
	.uleb128 0
	.align	2
.LECIE0:
.LSFDE0:
	.4byte	.LEFDE0-.LASFDE0
.LASFDE0:
	.4byte	.Lframe0
	.4byte	.LFB32
	.4byte	.LFE32-.LFB32
	.byte	0x4
	.4byte	.LCFI0-.LFB32
	.byte	0xe
	.uleb128 0x8
	.byte	0x87
	.uleb128 0x2
	.byte	0x8e
	.uleb128 0x1
	.byte	0x4
	.4byte	.LCFI1-.LCFI0
	.byte	0xd
	.uleb128 0x7
	.align	2
.LEFDE0:
.LSFDE2:
	.4byte	.LEFDE2-.LASFDE2
.LASFDE2:
	.4byte	.Lframe0
	.4byte	.LFB33
	.4byte	.LFE33-.LFB33
	.byte	0x4
	.4byte	.LCFI2-.LFB33
	.byte	0xe
	.uleb128 0x8
	.byte	0x87
	.uleb128 0x2
	.byte	0x8e
	.uleb128 0x1
	.byte	0x4
	.4byte	.LCFI3-.LCFI2
	.byte	0xd
	.uleb128 0x7
	.align	2
.LEFDE2:
.LSFDE4:
	.4byte	.LEFDE4-.LASFDE4
.LASFDE4:
	.4byte	.Lframe0
	.4byte	.LFB34
	.4byte	.LFE34-.LFB34
	.byte	0x4
	.4byte	.LCFI4-.LFB34
	.byte	0xe
	.uleb128 0x8
	.byte	0x87
	.uleb128 0x2
	.byte	0x8e
	.uleb128 0x1
	.byte	0x4
	.4byte	.LCFI5-.LCFI4
	.byte	0xe
	.uleb128 0x18
	.byte	0x4
	.4byte	.LCFI6-.LCFI5
	.byte	0xd
	.uleb128 0x7
	.align	2
.LEFDE4:
.LSFDE6:
	.4byte	.LEFDE6-.LASFDE6
.LASFDE6:
	.4byte	.Lframe0
	.4byte	.LFB35
	.4byte	.LFE35-.LFB35
	.byte	0x4
	.4byte	.LCFI7-.LFB35
	.byte	0xe
	.uleb128 0x8
	.byte	0x87
	.uleb128 0x2
	.byte	0x8e
	.uleb128 0x1
	.byte	0x4
	.4byte	.LCFI8-.LCFI7
	.byte	0xe
	.uleb128 0x10
	.byte	0x4
	.4byte	.LCFI9-.LCFI8
	.byte	0xd
	.uleb128 0x7
	.align	2
.LEFDE6:
.LSFDE8:
	.4byte	.LEFDE8-.LASFDE8
.LASFDE8:
	.4byte	.Lframe0
	.4byte	.LFB36
	.4byte	.LFE36-.LFB36
	.byte	0x4
	.4byte	.LCFI10-.LFB36
	.byte	0xe
	.uleb128 0x8
	.byte	0x87
	.uleb128 0x2
	.byte	0x8e
	.uleb128 0x1
	.byte	0x4
	.4byte	.LCFI11-.LCFI10
	.byte	0xe
	.uleb128 0x10
	.byte	0x4
	.4byte	.LCFI12-.LCFI11
	.byte	0xd
	.uleb128 0x7
	.align	2
.LEFDE8:
.LSFDE10:
	.4byte	.LEFDE10-.LASFDE10
.LASFDE10:
	.4byte	.Lframe0
	.4byte	.LFB37
	.4byte	.LFE37-.LFB37
	.byte	0x4
	.4byte	.LCFI13-.LFB37
	.byte	0xe
	.uleb128 0x8
	.byte	0x87
	.uleb128 0x2
	.byte	0x8e
	.uleb128 0x1
	.byte	0x4
	.4byte	.LCFI14-.LCFI13
	.byte	0xe
	.uleb128 0x10
	.byte	0x4
	.4byte	.LCFI15-.LCFI14
	.byte	0xd
	.uleb128 0x7
	.align	2
.LEFDE10:
.LSFDE12:
	.4byte	.LEFDE12-.LASFDE12
.LASFDE12:
	.4byte	.Lframe0
	.4byte	.LFB38
	.4byte	.LFE38-.LFB38
	.byte	0x4
	.4byte	.LCFI16-.LFB38
	.byte	0xe
	.uleb128 0x8
	.byte	0x87
	.uleb128 0x2
	.byte	0x8e
	.uleb128 0x1
	.byte	0x4
	.4byte	.LCFI17-.LCFI16
	.byte	0xe
	.uleb128 0x18
	.byte	0x4
	.4byte	.LCFI18-.LCFI17
	.byte	0xd
	.uleb128 0x7
	.align	2
.LEFDE12:
.LSFDE14:
	.4byte	.LEFDE14-.LASFDE14
.LASFDE14:
	.4byte	.Lframe0
	.4byte	.LFB39
	.4byte	.LFE39-.LFB39
	.byte	0x4
	.4byte	.LCFI19-.LFB39
	.byte	0xe
	.uleb128 0x8
	.byte	0x87
	.uleb128 0x2
	.byte	0x8e
	.uleb128 0x1
	.byte	0x4
	.4byte	.LCFI20-.LCFI19
	.byte	0xd
	.uleb128 0x7
	.align	2
.LEFDE14:
.LSFDE16:
	.4byte	.LEFDE16-.LASFDE16
.LASFDE16:
	.4byte	.Lframe0
	.4byte	.LFB40
	.4byte	.LFE40-.LFB40
	.byte	0x4
	.4byte	.LCFI21-.LFB40
	.byte	0xe
	.uleb128 0x8
	.byte	0x87
	.uleb128 0x2
	.byte	0x8e
	.uleb128 0x1
	.byte	0x4
	.4byte	.LCFI22-.LCFI21
	.byte	0xe
	.uleb128 0x10
	.byte	0x4
	.4byte	.LCFI23-.LCFI22
	.byte	0xd
	.uleb128 0x7
	.align	2
.LEFDE16:
.LSFDE18:
	.4byte	.LEFDE18-.LASFDE18
.LASFDE18:
	.4byte	.Lframe0
	.4byte	.LFB41
	.4byte	.LFE41-.LFB41
	.byte	0x4
	.4byte	.LCFI24-.LFB41
	.byte	0xe
	.uleb128 0x8
	.byte	0x87
	.uleb128 0x2
	.byte	0x8e
	.uleb128 0x1
	.byte	0x4
	.4byte	.LCFI25-.LCFI24
	.byte	0xd
	.uleb128 0x7
	.align	2
.LEFDE18:
	.text
.Letext0:
	.file 2 "/usr/share/crossworks_for_arm_3.7/include/stdint.h"
	.file 3 "../../../chip/stm32/stm32f091/lib/CMSIS/ST/STM32F0xx/Include/stm32f0xx.h"