	.syntax unified
	.cpu cortex-m0
	.fpu softvfp
	.eabi_attribute 20, 1
	.eabi_attribute 21, 1
	.eabi_attribute 23, 3
	.eabi_attribute 24, 1
	.eabi_attribute 25, 1
	.eabi_attribute 26, 1
	.eabi_attribute 30, 6
	.eabi_attribute 34, 0
	.eabi_attribute 18, 4
	.thumb
	.syntax unified
	.file	"stm32f0xx_dma.c"
	.text
.Ltext0:
	.section	.text.DMA_DeInit,"ax",%progbits
	.align	2
	.global	DMA_DeInit
	.code	16
	.thumb_func
	.type	DMA_DeInit, %function
DMA_DeInit:
.LFB32:
	.file 1 "/home/mike/Documents/GitHub/caribou-rtos/caribou/target/board/nucleo_f091/crossworks/../../../chip/stm32/stm32f030/lib/src/stm32f0xx_dma.c"
	.loc 1 127 0
	@ args = 0, pretend = 0, frame = 8
	@ frame_needed = 1, uses_anonymous_args = 0
	push	{r7, lr}
.LCFI0:
	sub	sp, sp, #8
.LCFI1:
	add	r7, sp, #0
.LCFI2:
	str	r0, [r7, #4]
	.loc 1 132 0
	ldr	r3, [r7, #4]
	ldr	r3, [r3]
	ldr	r2, .L8
	ands	r2, r3
	ldr	r3, [r7, #4]
	str	r2, [r3]
	.loc 1 135 0
	ldr	r3, [r7, #4]
	movs	r2, #0
	str	r2, [r3]
	.loc 1 138 0
	ldr	r3, [r7, #4]
	movs	r2, #0
	str	r2, [r3, #4]
	.loc 1 141 0
	ldr	r3, [r7, #4]
	movs	r2, #0
	str	r2, [r3, #8]
	.loc 1 144 0
	ldr	r3, [r7, #4]
	movs	r2, #0
	str	r2, [r3, #12]
	.loc 1 146 0
	ldr	r3, [r7, #4]
	ldr	r2, .L8+4
	cmp	r3, r2
	bne	.L2
	.loc 1 149 0
	ldr	r3, .L8+8
	ldr	r2, .L8+8
	ldr	r2, [r2, #4]
	movs	r1, #15
	orrs	r2, r1
	str	r2, [r3, #4]
	.loc 1 174 0
	b	.L7
.L2:
	.loc 1 151 0
	ldr	r3, [r7, #4]
	ldr	r2, .L8+12
	cmp	r3, r2
	bne	.L4
	.loc 1 154 0
	ldr	r3, .L8+8
	ldr	r2, .L8+8
	ldr	r2, [r2, #4]
	movs	r1, #240
	orrs	r2, r1
	str	r2, [r3, #4]
	.loc 1 174 0
	b	.L7
.L4:
	.loc 1 156 0
	ldr	r3, [r7, #4]
	ldr	r2, .L8+16
	cmp	r3, r2
	bne	.L5
	.loc 1 159 0
	ldr	r3, .L8+8
	ldr	r2, .L8+8
	ldr	r2, [r2, #4]
	movs	r1, #240
	lsls	r1, r1, #4
	orrs	r2, r1
	str	r2, [r3, #4]
	.loc 1 174 0
	b	.L7
.L5:
	.loc 1 161 0
	ldr	r3, [r7, #4]
	ldr	r2, .L8+20
	cmp	r3, r2
	bne	.L6
	.loc 1 164 0
	ldr	r3, .L8+8
	ldr	r2, .L8+8
	ldr	r2, [r2, #4]
	movs	r1, #240
	lsls	r1, r1, #8
	orrs	r2, r1
	str	r2, [r3, #4]
	.loc 1 174 0
	b	.L7
.L6:
	.loc 1 168 0
	ldr	r3, [r7, #4]
	ldr	r2, .L8+24
	cmp	r3, r2
	bne	.L7
	.loc 1 171 0
	ldr	r3, .L8+8
	ldr	r2, .L8+8
	ldr	r2, [r2, #4]
	movs	r1, #240
	lsls	r1, r1, #12
	orrs	r2, r1
	str	r2, [r3, #4]
.L7:
	.loc 1 174 0
	nop
	mov	sp, r7
	add	sp, sp, #8
	@ sp needed
	pop	{r7, pc}
.L9:
	.align	2
.L8:
	.word	65534
	.word	1073872904
	.word	1073872896
	.word	1073872924
	.word	1073872944
	.word	1073872964
	.word	1073872984
.LFE32:
	.size	DMA_DeInit, .-DMA_DeInit
	.section	.text.DMA_Init,"ax",%progbits
	.align	2
	.global	DMA_Init
	.code	16
	.thumb_func
	.type	DMA_Init, %function
DMA_Init:
.LFB33:
	.loc 1 186 0
	@ args = 0, pretend = 0, frame = 16
	@ frame_needed = 1, uses_anonymous_args = 0
	push	{r7, lr}
.LCFI3:
	sub	sp, sp, #16
.LCFI4:
	add	r7, sp, #0
.LCFI5:
	str	r0, [r7, #4]
	str	r1, [r7]
	.loc 1 187 0
	movs	r3, #0
	str	r3, [r7, #12]
	.loc 1 203 0
	ldr	r3, [r7, #4]
	ldr	r3, [r3]
	str	r3, [r7, #12]
	.loc 1 206 0
	ldr	r3, [r7, #12]
	ldr	r2, .L11
	ands	r3, r2
	str	r3, [r7, #12]
	.loc 1 217 0
	ldr	r3, [r7]
	ldr	r2, [r3, #8]
	ldr	r3, [r7]
	ldr	r3, [r3, #32]
	orrs	r2, r3
	.loc 1 218 0
	ldr	r3, [r7]
	ldr	r3, [r3, #16]
	.loc 1 217 0
	orrs	r2, r3
	.loc 1 218 0
	ldr	r3, [r7]
	ldr	r3, [r3, #20]
	orrs	r2, r3
	.loc 1 219 0
	ldr	r3, [r7]
	ldr	r3, [r3, #24]
	.loc 1 218 0
	orrs	r2, r3
	.loc 1 219 0
	ldr	r3, [r7]
	ldr	r3, [r3, #28]
	orrs	r2, r3
	.loc 1 220 0
	ldr	r3, [r7]
	ldr	r3, [r3, #36]
	.loc 1 219 0
	orrs	r2, r3
	.loc 1 220 0
	ldr	r3, [r7]
	ldr	r3, [r3, #40]
	orrs	r3, r2
	.loc 1 217 0
	ldr	r2, [r7, #12]
	orrs	r3, r2
	str	r3, [r7, #12]
	.loc 1 223 0
	ldr	r3, [r7, #4]
	ldr	r2, [r7, #12]
	str	r2, [r3]
	.loc 1 227 0
	ldr	r3, [r7]
	ldr	r2, [r3, #12]
	ldr	r3, [r7, #4]
	str	r2, [r3, #4]
	.loc 1 231 0
	ldr	r3, [r7]
	ldr	r2, [r3]
	ldr	r3, [r7, #4]
	str	r2, [r3, #8]
	.loc 1 235 0
	ldr	r3, [r7]
	ldr	r2, [r3, #4]
	ldr	r3, [r7, #4]
	str	r2, [r3, #12]
	.loc 1 236 0
	nop
	mov	sp, r7
	add	sp, sp, #16
	@ sp needed
	pop	{r7, pc}
.L12:
	.align	2
.L11:
	.word	-32753
.LFE33:
	.size	DMA_Init, .-DMA_Init
	.section	.text.DMA_StructInit,"ax",%progbits
	.align	2
	.global	DMA_StructInit
	.code	16
	.thumb_func
	.type	DMA_StructInit, %function
DMA_StructInit:
.LFB34:
	.loc 1 245 0
	@ args = 0, pretend = 0, frame = 8
	@ frame_needed = 1, uses_anonymous_args = 0
	push	{r7, lr}
.LCFI6:
	sub	sp, sp, #8
.LCFI7:
	add	r7, sp, #0
.LCFI8:
	str	r0, [r7, #4]
	.loc 1 248 0
	ldr	r3, [r7, #4]
	movs	r2, #0
	str	r2, [r3]
	.loc 1 250 0
	ldr	r3, [r7, #4]
	movs	r2, #0
	str	r2, [r3, #4]
	.loc 1 252 0
	ldr	r3, [r7, #4]
	movs	r2, #0
	str	r2, [r3, #8]
	.loc 1 254 0
	ldr	r3, [r7, #4]
	movs	r2, #0
	str	r2, [r3, #12]
	.loc 1 256 0
	ldr	r3, [r7, #4]
	movs	r2, #0
	str	r2, [r3, #16]
	.loc 1 258 0
	ldr	r3, [r7, #4]
	movs	r2, #0
	str	r2, [r3, #20]
	.loc 1 260 0
	ldr	r3, [r7, #4]
	movs	r2, #0
	str	r2, [r3, #24]
	.loc 1 262 0
	ldr	r3, [r7, #4]
	movs	r2, #0
	str	r2, [r3, #28]
	.loc 1 264 0
	ldr	r3, [r7, #4]
	movs	r2, #0
	str	r2, [r3, #32]
	.loc 1 266 0
	ldr	r3, [r7, #4]
	movs	r2, #0
	str	r2, [r3, #36]
	.loc 1 268 0
	ldr	r3, [r7, #4]
	movs	r2, #0
	str	r2, [r3, #40]
	.loc 1 269 0
	nop
	mov	sp, r7
	add	sp, sp, #8
	@ sp needed
	pop	{r7, pc}
.LFE34:
	.size	DMA_StructInit, .-DMA_StructInit
	.section	.text.DMA_Cmd,"ax",%progbits
	.align	2
	.global	DMA_Cmd
	.code	16
	.thumb_func
	.type	DMA_Cmd, %function
DMA_Cmd:
.LFB35:
	.loc 1 280 0
	@ args = 0, pretend = 0, frame = 8
	@ frame_needed = 1, uses_anonymous_args = 0
	push	{r7, lr}
.LCFI9:
	sub	sp, sp, #8
.LCFI10:
	add	r7, sp, #0
.LCFI11:
	str	r0, [r7, #4]
	movs	r2, r1
	adds	r3, r7, #3
	strb	r2, [r3]
	.loc 1 285 0
	adds	r3, r7, #3
	ldrb	r3, [r3]
	cmp	r3, #0
	beq	.L15
	.loc 1 288 0
	ldr	r3, [r7, #4]
	ldr	r3, [r3]
	movs	r2, #1
	orrs	r2, r3
	ldr	r3, [r7, #4]
	str	r2, [r3]
	.loc 1 295 0
	b	.L17
.L15:
	.loc 1 293 0
	ldr	r3, [r7, #4]
	ldr	r3, [r3]
	ldr	r2, .L18
	ands	r2, r3
	ldr	r3, [r7, #4]
	str	r2, [r3]
.L17:
	.loc 1 295 0
	nop
	mov	sp, r7
	add	sp, sp, #8
	@ sp needed
	pop	{r7, pc}
.L19:
	.align	2
.L18:
	.word	65534
.LFE35:
	.size	DMA_Cmd, .-DMA_Cmd
	.section	.text.DMA_SetCurrDataCounter,"ax",%progbits
	.align	2
	.global	DMA_SetCurrDataCounter
	.code	16
	.thumb_func
	.type	DMA_SetCurrDataCounter, %function
DMA_SetCurrDataCounter:
.LFB36:
	.loc 1 339 0
	@ args = 0, pretend = 0, frame = 8
	@ frame_needed = 1, uses_anonymous_args = 0
	push	{r7, lr}
.LCFI12:
	sub	sp, sp, #8
.LCFI13:
	add	r7, sp, #0
.LCFI14:
	str	r0, [r7, #4]
	movs	r2, r1
	adds	r3, r7, #2
	strh	r2, [r3]
	.loc 1 345 0
	adds	r3, r7, #2
	ldrh	r2, [r3]
	ldr	r3, [r7, #4]
	str	r2, [r3, #4]
	.loc 1 346 0
	nop
	mov	sp, r7
	add	sp, sp, #8
	@ sp needed
	pop	{r7, pc}
.LFE36:
	.size	DMA_SetCurrDataCounter, .-DMA_SetCurrDataCounter
	.section	.text.DMA_GetCurrDataCounter,"ax",%progbits
	.align	2
	.global	DMA_GetCurrDataCounter
	.code	16
	.thumb_func
	.type	DMA_GetCurrDataCounter, %function
DMA_GetCurrDataCounter:
.LFB37:
	.loc 1 357 0
	@ args = 0, pretend = 0, frame = 8
	@ frame_needed = 1, uses_anonymous_args = 0
	push	{r7, lr}
.LCFI15:
	sub	sp, sp, #8
.LCFI16:
	add	r7, sp, #0
.LCFI17:
	str	r0, [r7, #4]
	.loc 1 361 0
	ldr	r3, [r7, #4]
	ldr	r3, [r3, #4]
	uxth	r3, r3
	.loc 1 362 0
	movs	r0, r3
	mov	sp, r7
	add	sp, sp, #8
	@ sp needed
	pop	{r7, pc}
.LFE37:
	.size	DMA_GetCurrDataCounter, .-DMA_GetCurrDataCounter
	.section	.text.DMA_ITConfig,"ax",%progbits
	.align	2
	.global	DMA_ITConfig
	.code	16
	.thumb_func
	.type	DMA_ITConfig, %function
DMA_ITConfig:
.LFB38:
	.loc 1 432 0
	@ args = 0, pretend = 0, frame = 16
	@ frame_needed = 1, uses_anonymous_args = 0
	push	{r7, lr}
.LCFI18:
	sub	sp, sp, #16
.LCFI19:
	add	r7, sp, #0
.LCFI20:
	str	r0, [r7, #12]
	str	r1, [r7, #8]
	adds	r3, r7, #7
	strb	r2, [r3]
	.loc 1 438 0
	adds	r3, r7, #7
	ldrb	r3, [r3]
	cmp	r3, #0
	beq	.L24
	.loc 1 441 0
	ldr	r3, [r7, #12]
	ldr	r2, [r3]
	ldr	r3, [r7, #8]
	orrs	r2, r3
	ldr	r3, [r7, #12]
	str	r2, [r3]
	.loc 1 448 0
	b	.L26
.L24:
	.loc 1 446 0
	ldr	r3, [r7, #12]
	ldr	r3, [r3]
	ldr	r2, [r7, #8]
	mvns	r2, r2
	ands	r2, r3
	ldr	r3, [r7, #12]
	str	r2, [r3]
.L26:
	.loc 1 448 0
	nop
	mov	sp, r7
	add	sp, sp, #16
	@ sp needed
	pop	{r7, pc}
.LFE38:
	.size	DMA_ITConfig, .-DMA_ITConfig
	.section	.text.DMA_GetFlagStatus,"ax",%progbits
	.align	2
	.global	DMA_GetFlagStatus
	.code	16
	.thumb_func
	.type	DMA_GetFlagStatus, %function
DMA_GetFlagStatus:
.LFB39:
	.loc 1 484 0
	@ args = 0, pretend = 0, frame = 16
	@ frame_needed = 1, uses_anonymous_args = 0
	push	{r7, lr}
.LCFI21:
	sub	sp, sp, #16
.LCFI22:
	add	r7, sp, #0
.LCFI23:
	str	r0, [r7, #4]
	.loc 1 485 0
	movs	r3, #15
	adds	r3, r7, r3
	movs	r2, #0
	strb	r2, [r3]
	.loc 1 491 0
	ldr	r3, .L31
	ldr	r3, [r3]
	ldr	r2, [r7, #4]
	ands	r3, r2
	beq	.L28
	.loc 1 494 0
	movs	r3, #15
	adds	r3, r7, r3
	movs	r2, #1
	strb	r2, [r3]
	b	.L29
.L28:
	.loc 1 499 0
	movs	r3, #15
	adds	r3, r7, r3
	movs	r2, #0
	strb	r2, [r3]
.L29:
	.loc 1 503 0
	movs	r3, #15
	adds	r3, r7, r3
	ldrb	r3, [r3]
	.loc 1 504 0
	movs	r0, r3
	mov	sp, r7
	add	sp, sp, #16
	@ sp needed
	pop	{r7, pc}
.L32:
	.align	2
.L31:
	.word	1073872896
.LFE39:
	.size	DMA_GetFlagStatus, .-DMA_GetFlagStatus
	.section	.text.DMA_ClearFlag,"ax",%progbits
	.align	2
	.global	DMA_ClearFlag
	.code	16
	.thumb_func
	.type	DMA_ClearFlag, %function
DMA_ClearFlag:
.LFB40:
	.loc 1 539 0
	@ args = 0, pretend = 0, frame = 8
	@ frame_needed = 1, uses_anonymous_args = 0
	push	{r7, lr}
.LCFI24:
	sub	sp, sp, #8
.LCFI25:
	add	r7, sp, #0
.LCFI26:
	str	r0, [r7, #4]
	.loc 1 544 0
	ldr	r3, .L34
	ldr	r2, [r7, #4]
	str	r2, [r3, #4]
	.loc 1 545 0
	nop
	mov	sp, r7
	add	sp, sp, #8
	@ sp needed
	pop	{r7, pc}
.L35:
	.align	2
.L34:
	.word	1073872896
.LFE40:
	.size	DMA_ClearFlag, .-DMA_ClearFlag
	.section	.text.DMA_GetITStatus,"ax",%progbits
	.align	2
	.global	DMA_GetITStatus
	.code	16
	.thumb_func
	.type	DMA_GetITStatus, %function
DMA_GetITStatus:
.LFB41:
	.loc 1 581 0
	@ args = 0, pretend = 0, frame = 16
	@ frame_needed = 1, uses_anonymous_args = 0
	push	{r7, lr}
.LCFI27:
	sub	sp, sp, #16
.LCFI28:
	add	r7, sp, #0
.LCFI29:
	str	r0, [r7, #4]
	.loc 1 582 0
	movs	r3, #15
	adds	r3, r7, r3
	movs	r2, #0
	strb	r2, [r3]
	.loc 1 588 0
	ldr	r3, .L40
	ldr	r3, [r3]
	ldr	r2, [r7, #4]
	ands	r3, r2
	beq	.L37
	.loc 1 591 0
	movs	r3, #15
	adds	r3, r7, r3
	movs	r2, #1
	strb	r2, [r3]
	b	.L38
.L37:
	.loc 1 596 0
	movs	r3, #15
	adds	r3, r7, r3
	movs	r2, #0
	strb	r2, [r3]
.L38:
	.loc 1 599 0
	movs	r3, #15
	adds	r3, r7, r3
	ldrb	r3, [r3]
	.loc 1 600 0
	movs	r0, r3
	mov	sp, r7
	add	sp, sp, #16
	@ sp needed
	pop	{r7, pc}
.L41:
	.align	2
.L40:
	.word	1073872896
.LFE41:
	.size	DMA_GetITStatus, .-DMA_GetITStatus
	.section	.text.DMA_ClearITPendingBit,"ax",%progbits
	.align	2
	.global	DMA_ClearITPendingBit
	.code	16
	.thumb_func
	.type	DMA_ClearITPendingBit, %function
DMA_ClearITPendingBit:
.LFB42:
	.loc 1 636 0
	@ args = 0, pretend = 0, frame = 8
	@ frame_needed = 1, uses_anonymous_args = 0
	push	{r7, lr}
.LCFI30:
	sub	sp, sp, #8
.LCFI31:
	add	r7, sp, #0
.LCFI32:
	str	r0, [r7, #4]
	.loc 1 641 0
	ldr	r3, .L43
	ldr	r2, [r7, #4]
	str	r2, [r3, #4]
	.loc 1 642 0
	nop
	mov	sp, r7
	add	sp, sp, #8
	@ sp needed
	pop	{r7, pc}
.L44:
	.align	2
.L43:
	.word	1073872896
.LFE42:
	.size	DMA_ClearITPendingBit, .-DMA_ClearITPendingBit
	.section	.debug_frame,"",%progbits
.Lframe0:
	.4byte	.LECIE0-.LSCIE0
.LSCIE0:
	.4byte	0xffffffff
	.byte	0x3
	.ascii	"\000"
	.uleb128 0x1
	.sleb128 -4
	.uleb128 0xe
	.byte	0xc
	.uleb128 0xd
	.uleb128 0
	.align	2
.LECIE0:
.LSFDE0:
	.4byte	.LEFDE0-.LASFDE0
.LASFDE0:
	.4byte	.Lframe0
	.4byte	.LFB32
	.4byte	.LFE32-.LFB32
	.byte	0x4
	.4byte	.LCFI0-.LFB32
	.byte	0xe
	.uleb128 0x8
	.byte	0x87
	.uleb128 0x2
	.byte	0x8e
	.uleb128 0x1
	.byte	0x4
	.4byte	.LCFI1-.LCFI0
	.byte	0xe
	.uleb128 0x10
	.byte	0x4
	.4byte	.LCFI2-.LCFI1
	.byte	0xd
	.uleb128 0x7
	.align	2
.LEFDE0:
.LSFDE2:
	.4byte	.LEFDE2-.LASFDE2
.LASFDE2:
	.4byte	.Lframe0
	.4byte	.LFB33
	.4byte	.LFE33-.LFB33
	.byte	0x4
	.4byte	.LCFI3-.LFB33
	.byte	0xe
	.uleb128 0x8
	.byte	0x87
	.uleb128 0x2
	.byte	0x8e
	.uleb128 0x1
	.byte	0x4
	.4byte	.LCFI4-.LCFI3
	.byte	0xe
	.uleb128 0x18
	.byte	0x4
	.4byte	.LCFI5-.LCFI4
	.byte	0xd
	.uleb128 0x7
	.align	2
.LEFDE2:
.LSFDE4:
	.4byte	.LEFDE4-.LASFDE4
.LASFDE4:
	.4byte	.Lframe0
	.4byte	.LFB34
	.4byte	.LFE34-.LFB34
	.byte	0x4
	.4byte	.LCFI6-.LFB34
	.byte	0xe
	.uleb128 0x8
	.byte	0x87
	.uleb128 0x2
	.byte	0x8e
	.uleb128 0x1
	.byte	0x4
	.4byte	.LCFI7-.LCFI6
	.byte	0xe
	.uleb128 0x10
	.byte	0x4
	.4byte	.LCFI8-.LCFI7
	.byte	0xd
	.uleb128 0x7
	.align	2
.LEFDE4:
.LSFDE6:
	.4byte	.LEFDE6-.LASFDE6
.LASFDE6:
	.4byte	.Lframe0
	.4byte	.LFB35
	.4byte	.LFE35-.LFB35
	.byte	0x4
	.4byte	.LCFI9-.LFB35
	.byte	0xe
	.uleb128 0x8
	.byte	0x87
	.uleb128 0x2
	.byte	0x8e
	.uleb128 0x1
	.byte	0x4
	.4byte	.LCFI10-.LCFI9
	.byte	0xe
	.uleb128 0x10
	.byte	0x4
	.4byte	.LCFI11-.LCFI10
	.byte	0xd
	.uleb128 0x7
	.align	2
.LEFDE6:
.LSFDE8:
	.4byte	.LEFDE8-.LASFDE8
.LASFDE8:
	.4byte	.Lframe0
	.4byte	.LFB36
	.4byte	.LFE36-.LFB36
	.byte	0x4
	.4byte	.LCFI12-.LFB36
	.byte	0xe
	.uleb128 0x8
	.byte	0x87
	.uleb128 0x2
	.byte	0x8e
	.uleb128 0x1
	.byte	0x4
	.4byte	.LCFI13-.LCFI12
	.byte	0xe
	.uleb128 0x10
	.byte	0x4
	.4byte	.LCFI14-.LCFI13
	.byte	0xd
	.uleb128 0x7
	.align	2
.LEFDE8:
.LSFDE10:
	.4byte	.LEFDE10-.LASFDE10
.LASFDE10:
	.4byte	.Lframe0
	.4byte	.LFB37
	.4byte	.LFE37-.LFB37
	.byte	0x4
	.4byte	.LCFI15-.LFB37
	.byte	0xe
	.uleb128 0x8
	.byte	0x87
	.uleb128 0x2
	.byte	0x8e
	.uleb128 0x1
	.byte	0x4
	.4byte	.LCFI16-.LCFI15
	.byte	0xe
	.uleb128 0x10
	.byte	0x4
	.4byte	.LCFI17-.LCFI16
	.byte	0xd
	.uleb128 0x7
	.align	2
.LEFDE10:
.LSFDE12:
	.4byte	.LEFDE12-.LASFDE12
.LASFDE12:
	.4byte	.Lframe0
	.4byte	.LFB38
	.4byte	.LFE38-.LFB38
	.byte	0x4
	.4byte	.LCFI18-.LFB38
	.byte	0xe
	.uleb128 0x8
	.byte	0x87
	.uleb128 0x2
	.byte	0x8e
	.uleb128 0x1
	.byte	0x4
	.4byte	.LCFI19-.LCFI18
	.byte	0xe
	.uleb128 0x18
	.byte	0x4
	.4byte	.LCFI20-.LCFI19
	.byte	0xd
	.uleb128 0x7
	.align	2
.LEFDE12:
.LSFDE14:
	.4byte	.LEFDE14-.LASFDE14
.LASFDE14:
	.4byte	.Lframe0
	.4byte	.LFB39
	.4byte	.LFE39-.LFB39
	.byte	0x4
	.4byte	.LCFI21-.LFB39
	.byte	0xe
	.uleb128 0x8
	.byte	0x87
	.uleb128 0x2
	.byte	0x8e
	.uleb128 0x1
	.byte	0x4
	.4byte	.LCFI22-.LCFI21
	.byte	0xe
	.uleb128 0x18
	.byte	0x4
	.4byte	.LCFI23-.LCFI22
	.byte	0xd
	.uleb128 0x7
	.align	2
.LEFDE14:
.LSFDE16:
	.4byte	.LEFDE16-.LASFDE16
.LASFDE16:
	.4byte	.Lframe0
	.4byte	.LFB40
	.4byte	.LFE40-.LFB40
	.byte	0x4
	.4byte	.LCFI24-.LFB40
	.byte	0xe
	.uleb128 0x8
	.byte	0x87
	.uleb128 0x2
	.byte	0x8e
	.uleb128 0x1
	.byte	0x4
	.4byte	.LCFI25-.LCFI24
	.byte	0xe
	.uleb128 0x10
	.byte	0x4
	.4byte	.LCFI26-.LCFI25
	.byte	0xd
	.uleb128 0x7
	.align	2
.LEFDE16:
.LSFDE18:
	.4byte	.LEFDE18-.LASFDE18
.LASFDE18:
	.4byte	.Lframe0
	.4byte	.LFB41
	.4byte	.LFE41-.LFB41
	.byte	0x4
	.4byte	.LCFI27-.LFB41
	.byte	0xe
	.uleb128 0x8
	.byte	0x87
	.uleb128 0x2
	.byte	0x8e
	.uleb128 0x1
	.byte	0x4
	.4byte	.LCFI28-.LCFI27
	.byte	0xe
	.uleb128 0x18
	.byte	0x4
	.4byte	.LCFI29-.LCFI28
	.byte	0xd
	.uleb128 0x7
	.align	2
.LEFDE18:
.LSFDE20:
	.4byte	.LEFDE20-.LASFDE20
.LASFDE20:
	.4byte	.Lframe0
	.4byte	.LFB42
	.4byte	.LFE42-.LFB42
	.byte	0x4
	.4byte	.LCFI30-.LFB42
	.byte	0xe
	.uleb128 0x8
	.byte	0x87
	.uleb128 0x2
	.byte	0x8e
	.uleb128 0x1
	.byte	0x4
	.4byte	.LCFI31-.LCFI30
	.byte	0xe
	.uleb128 0x10
	.byte	0x4
	.4byte	.LCFI32-.LCFI31
	.byte	0xd
	.uleb128 0x7
	.align	2
.LEFDE20:
	.text
.Letext0:
	.file 2 "/usr/share/crossworks_for_arm_3.7/include/stdint.h"
	.file 3 "../../../chip/stm32/stm32f091/lib/CMSIS/ST/STM32F0xx/Include/stm32f0xx.h"
	.file 4 "../../../chip/stm32/stm32f091/lib/include/stm32f0xx_dma.h"