	.syntax unified
	.cpu cortex-m0
	.fpu softvfp
	.eabi_attribute 20, 1
	.eabi_attribute 21, 1
	.eabi_attribute 23, 3
	.eabi_attribute 24, 1
	.eabi_attribute 25, 1
	.eabi_attribute 26, 1
	.eabi_attribute 30, 6
	.eabi_attribute 34, 0
	.eabi_attribute 18, 4
	.thumb
	.syntax unified
	.file	"system_stm32f0xx.c"
	.text
.Ltext0:
	.global	SystemCoreClock
	.section	.data.SystemCoreClock,"aw",%progbits
	.align	2
	.type	SystemCoreClock, %object
	.size	SystemCoreClock, 4
SystemCoreClock:
	.word	48000000
	.global	AHBPrescTable
	.section	.data.AHBPrescTable,"aw",%progbits
	.align	2
	.type	AHBPrescTable, %object
	.size	AHBPrescTable, 16
AHBPrescTable:
	.byte	0
	.byte	0
	.byte	0
	.byte	0
	.byte	0
	.byte	0
	.byte	0
	.byte	0
	.byte	1
	.byte	2
	.byte	3
	.byte	4
	.byte	6
	.byte	7
	.byte	8
	.byte	9
	.section	.text.SystemInit,"ax",%progbits
	.align	2
	.global	SystemInit
	.code	16
	.thumb_func
	.type	SystemInit, %function
SystemInit:
.LFB32:
	.file 1 "/home/mike/Documents/GitHub/caribou-rtos/caribou/target/board/nucleo_f030/crossworks/../src/system_stm32f0xx.c"
	.loc 1 160 0
	@ args = 0, pretend = 0, frame = 0
	@ frame_needed = 1, uses_anonymous_args = 0
	push	{r7, lr}
.LCFI0:
	add	r7, sp, #0
.LCFI1:
	.loc 1 162 0
	ldr	r3, .L2
	ldr	r2, .L2
	ldr	r2, [r2]
	movs	r1, #1
	orrs	r2, r1
	str	r2, [r3]
	.loc 1 165 0
	ldr	r3, .L2
	ldr	r2, .L2
	ldr	r2, [r2, #4]
	ldr	r1, .L2+4
	ands	r2, r1
	str	r2, [r3, #4]
	.loc 1 168 0
	ldr	r3, .L2
	ldr	r2, .L2
	ldr	r2, [r2]
	ldr	r1, .L2+8
	ands	r2, r1
	str	r2, [r3]
	.loc 1 171 0
	ldr	r3, .L2
	ldr	r2, .L2
	ldr	r2, [r2]
	ldr	r1, .L2+12
	ands	r2, r1
	str	r2, [r3]
	.loc 1 174 0
	ldr	r3, .L2
	ldr	r2, .L2
	ldr	r2, [r2, #4]
	ldr	r1, .L2+16
	ands	r2, r1
	str	r2, [r3, #4]
	.loc 1 177 0
	ldr	r3, .L2
	ldr	r2, .L2
	ldr	r2, [r2, #44]
	movs	r1, #15
	bics	r2, r1
	str	r2, [r3, #44]
	.loc 1 180 0
	ldr	r3, .L2
	ldr	r2, .L2
	ldr	r2, [r2, #48]
	ldr	r1, .L2+20
	ands	r2, r1
	str	r2, [r3, #48]
	.loc 1 183 0
	ldr	r3, .L2
	ldr	r2, .L2
	ldr	r2, [r2, #52]
	movs	r1, #1
	bics	r2, r1
	str	r2, [r3, #52]
	.loc 1 186 0
	ldr	r3, .L2
	movs	r2, #0
	str	r2, [r3, #8]
	.loc 1 189 0
	bl	SetSysClock
	.loc 1 190 0
	nop
	mov	sp, r7
	@ sp needed
	pop	{r7, pc}
.L3:
	.align	2
.L2:
	.word	1073876992
	.word	-117458932
	.word	-17367041
	.word	-262145
	.word	-4128769
	.word	-340
.LFE32:
	.size	SystemInit, .-SystemInit
	.global	__aeabi_uidiv
	.section	.text.SystemCoreClockUpdate,"ax",%progbits
	.align	2
	.global	SystemCoreClockUpdate
	.code	16
	.thumb_func
	.type	SystemCoreClockUpdate, %function
SystemCoreClockUpdate:
.LFB33:
	.loc 1 228 0
	@ args = 0, pretend = 0, frame = 16
	@ frame_needed = 1, uses_anonymous_args = 0
	push	{r7, lr}
.LCFI2:
	sub	sp, sp, #16
.LCFI3:
	add	r7, sp, #0
.LCFI4:
	.loc 1 229 0
	movs	r3, #0
	str	r3, [r7, #12]
	movs	r3, #0
	str	r3, [r7, #8]
	movs	r3, #0
	str	r3, [r7, #4]
	movs	r3, #0
	str	r3, [r7]
	.loc 1 232 0
	ldr	r3, .L13
	ldr	r3, [r3, #4]
	movs	r2, #12
	ands	r3, r2
	str	r3, [r7, #12]
	.loc 1 234 0
	ldr	r3, [r7, #12]
	cmp	r3, #4
	beq	.L6
	cmp	r3, #8
	beq	.L7
	cmp	r3, #0
	bne	.L12
	.loc 1 237 0
	ldr	r3, .L13+4
	ldr	r2, .L13+8
	str	r2, [r3]
	.loc 1 238 0
	b	.L9
.L6:
	.loc 1 240 0
	ldr	r3, .L13+4
	ldr	r2, .L13+8
	str	r2, [r3]
	.loc 1 241 0
	b	.L9
.L7:
	.loc 1 244 0
	ldr	r3, .L13
	ldr	r2, [r3, #4]
	movs	r3, #240
	lsls	r3, r3, #14
	ands	r3, r2
	str	r3, [r7, #8]
	.loc 1 245 0
	ldr	r3, .L13
	ldr	r2, [r3, #4]
	movs	r3, #128
	lsls	r3, r3, #9
	ands	r3, r2
	str	r3, [r7, #4]
	.loc 1 246 0
	ldr	r3, [r7, #8]
	lsrs	r3, r3, #18
	adds	r3, r3, #2
	str	r3, [r7, #8]
	.loc 1 248 0
	ldr	r3, [r7, #4]
	cmp	r3, #0
	bne	.L10
	.loc 1 251 0
	ldr	r3, [r7, #8]
	ldr	r2, .L13+12
	muls	r2, r3
	ldr	r3, .L13+4
	str	r2, [r3]
	.loc 1 259 0
	b	.L9
.L10:
	.loc 1 255 0
	ldr	r3, .L13
	ldr	r3, [r3, #44]
	movs	r2, #15
	ands	r3, r2
	adds	r3, r3, #1
	str	r3, [r7]
	.loc 1 257 0
	ldr	r1, [r7]
	ldr	r0, .L13+8
	bl	__aeabi_uidiv
	movs	r3, r0
	movs	r2, r3
	ldr	r3, [r7, #8]
	muls	r2, r3
	ldr	r3, .L13+4
	str	r2, [r3]
	.loc 1 259 0
	b	.L9
.L12:
	.loc 1 261 0
	ldr	r3, .L13+4
	ldr	r2, .L13+8
	str	r2, [r3]
	.loc 1 262 0
	nop
.L9:
	.loc 1 266 0
	ldr	r3, .L13
	ldr	r3, [r3, #4]
	movs	r2, #240
	ands	r3, r2
	lsrs	r3, r3, #4
	ldr	r2, .L13+16
	ldrb	r3, [r2, r3]
	uxtb	r3, r3
	str	r3, [r7, #12]
	.loc 1 268 0
	ldr	r3, .L13+4
	ldr	r2, [r3]
	ldr	r3, [r7, #12]
	lsrs	r2, r2, r3
	ldr	r3, .L13+4
	str	r2, [r3]
	.loc 1 269 0
	nop
	mov	sp, r7
	add	sp, sp, #16
	@ sp needed
	pop	{r7, pc}
.L14:
	.align	2
.L13:
	.word	1073876992
	.word	SystemCoreClock
	.word	8000000
	.word	4000000
	.word	AHBPrescTable
.LFE33:
	.size	SystemCoreClockUpdate, .-SystemCoreClockUpdate
	.section	.text.SetSysClock,"ax",%progbits
	.align	2
	.code	16
	.thumb_func
	.type	SetSysClock, %function
SetSysClock:
.LFB34:
	.loc 1 280 0
	@ args = 0, pretend = 0, frame = 8
	@ frame_needed = 1, uses_anonymous_args = 0
	push	{r7, lr}
.LCFI5:
	sub	sp, sp, #8
.LCFI6:
	add	r7, sp, #0
.LCFI7:
	.loc 1 281 0
	movs	r3, #0
	str	r3, [r7, #4]
	movs	r3, #0
	str	r3, [r7]
	.loc 1 285 0
	ldr	r3, .L27
	ldr	r2, .L27
	ldr	r2, [r2]
	movs	r1, #128
	lsls	r1, r1, #9
	orrs	r2, r1
	str	r2, [r3]
.L17:
	.loc 1 290 0 discriminator 2
	ldr	r3, .L27
	ldr	r2, [r3]
	movs	r3, #128
	lsls	r3, r3, #10
	ands	r3, r2
	str	r3, [r7]
	.loc 1 291 0 discriminator 2
	ldr	r3, [r7, #4]
	adds	r3, r3, #1
	str	r3, [r7, #4]
	.loc 1 292 0 discriminator 2
	ldr	r3, [r7]
	cmp	r3, #0
	bne	.L16
	.loc 1 292 0 is_stmt 0 discriminator 1
	ldr	r2, [r7, #4]
	movs	r3, #160
	lsls	r3, r3, #3
	cmp	r2, r3
	bne	.L17
.L16:
	.loc 1 294 0 is_stmt 1
	ldr	r3, .L27
	ldr	r2, [r3]
	movs	r3, #128
	lsls	r3, r3, #10
	ands	r3, r2
	beq	.L18
	.loc 1 296 0
	movs	r3, #1
	str	r3, [r7]
	b	.L19
.L18:
	.loc 1 300 0
	movs	r3, #0
	str	r3, [r7]
.L19:
	.loc 1 303 0
	ldr	r3, [r7]
	cmp	r3, #1
	bne	.L20
	.loc 1 306 0
	ldr	r3, .L27+4
	movs	r2, #17
	str	r2, [r3]
	.loc 1 309 0
	ldr	r3, .L27
	ldr	r2, .L27
	ldr	r2, [r2, #4]
	str	r2, [r3, #4]
	.loc 1 312 0
	ldr	r3, .L27
	ldr	r2, .L27
	ldr	r2, [r2, #4]
	str	r2, [r3, #4]
	.loc 1 315 0
	ldr	r3, .L27
	ldr	r2, .L27
	ldr	r2, [r2, #4]
	ldr	r1, .L27+8
	ands	r2, r1
	str	r2, [r3, #4]
	.loc 1 316 0
	ldr	r3, .L27
	ldr	r2, .L27
	ldr	r2, [r2, #4]
	movs	r1, #136
	lsls	r1, r1, #13
	orrs	r2, r1
	str	r2, [r3, #4]
	.loc 1 319 0
	ldr	r3, .L27
	ldr	r2, .L27
	ldr	r2, [r2]
	movs	r1, #128
	lsls	r1, r1, #17
	orrs	r2, r1
	str	r2, [r3]
	.loc 1 322 0
	nop
.L21:
	.loc 1 322 0 is_stmt 0 discriminator 1
	ldr	r3, .L27
	ldr	r2, [r3]
	movs	r3, #128
	lsls	r3, r3, #18
	ands	r3, r2
	beq	.L21
	.loc 1 327 0 is_stmt 1
	ldr	r3, .L27
	ldr	r2, .L27
	ldr	r2, [r2, #4]
	movs	r1, #3
	bics	r2, r1
	str	r2, [r3, #4]
	.loc 1 328 0
	ldr	r3, .L27
	ldr	r2, .L27
	ldr	r2, [r2, #4]
	movs	r1, #2
	orrs	r2, r1
	str	r2, [r3, #4]
	.loc 1 331 0
	nop
.L22:
	.loc 1 331 0 is_stmt 0 discriminator 1
	ldr	r3, .L27
	ldr	r3, [r3, #4]
	movs	r2, #12
	ands	r3, r2
	cmp	r3, #8
	bne	.L22
	.loc 1 369 0 is_stmt 1
	b	.L26
.L20:
	.loc 1 340 0
	ldr	r3, .L27+4
	movs	r2, #17
	str	r2, [r3]
	.loc 1 343 0
	ldr	r3, .L27
	ldr	r2, .L27
	ldr	r2, [r2, #4]
	str	r2, [r3, #4]
	.loc 1 346 0
	ldr	r3, .L27
	ldr	r2, .L27
	ldr	r2, [r2, #4]
	str	r2, [r3, #4]
	.loc 1 349 0
	ldr	r3, .L27
	ldr	r2, .L27
	ldr	r2, [r2, #4]
	ldr	r1, .L27+8
	ands	r2, r1
	str	r2, [r3, #4]
	.loc 1 350 0
	ldr	r3, .L27
	ldr	r2, .L27
	ldr	r2, [r2, #4]
	movs	r1, #160
	lsls	r1, r1, #14
	orrs	r2, r1
	str	r2, [r3, #4]
	.loc 1 353 0
	ldr	r3, .L27
	ldr	r2, .L27
	ldr	r2, [r2]
	movs	r1, #128
	lsls	r1, r1, #17
	orrs	r2, r1
	str	r2, [r3]
	.loc 1 356 0
	nop
.L24:
	.loc 1 356 0 is_stmt 0 discriminator 1
	ldr	r3, .L27
	ldr	r2, [r3]
	movs	r3, #128
	lsls	r3, r3, #18
	ands	r3, r2
	beq	.L24
	.loc 1 361 0 is_stmt 1
	ldr	r3, .L27
	ldr	r2, .L27
	ldr	r2, [r2, #4]
	movs	r1, #3
	bics	r2, r1
	str	r2, [r3, #4]
	.loc 1 362 0
	ldr	r3, .L27
	ldr	r2, .L27
	ldr	r2, [r2, #4]
	movs	r1, #2
	orrs	r2, r1
	str	r2, [r3, #4]
	.loc 1 365 0
	nop
.L25:
	.loc 1 365 0 is_stmt 0 discriminator 1
	ldr	r3, .L27
	ldr	r3, [r3, #4]
	movs	r2, #12
	ands	r3, r2
	cmp	r3, #8
	bne	.L25
.L26:
	.loc 1 369 0 is_stmt 1
	nop
	mov	sp, r7
	add	sp, sp, #8
	@ sp needed
	pop	{r7, pc}
.L28:
	.align	2
.L27:
	.word	1073876992
	.word	1073881088
	.word	-4128769
.LFE34:
	.size	SetSysClock, .-SetSysClock
	.section	.debug_frame,"",%progbits
.Lframe0:
	.4byte	.LECIE0-.LSCIE0
.LSCIE0:
	.4byte	0xffffffff
	.byte	0x3
	.ascii	"\000"
	.uleb128 0x1
	.sleb128 -4
	.uleb128 0xe
	.byte	0xc
	.uleb128 0xd
	.uleb128 0
	.align	2
.LECIE0:
.LSFDE0:
	.4byte	.LEFDE0-.LASFDE0
.LASFDE0:
	.4byte	.Lframe0
	.4byte	.LFB32
	.4byte	.LFE32-.LFB32
	.byte	0x4
	.4byte	.LCFI0-.LFB32
	.byte	0xe
	.uleb128 0x8
	.byte	0x87
	.uleb128 0x2
	.byte	0x8e
	.uleb128 0x1
	.byte	0x4
	.4byte	.LCFI1-.LCFI0
	.byte	0xd
	.uleb128 0x7
	.align	2
.LEFDE0:
.LSFDE2:
	.4byte	.LEFDE2-.LASFDE2
.LASFDE2:
	.4byte	.Lframe0
	.4byte	.LFB33
	.4byte	.LFE33-.LFB33
	.byte	0x4
	.4byte	.LCFI2-.LFB33
	.byte	0xe
	.uleb128 0x8
	.byte	0x87
	.uleb128 0x2
	.byte	0x8e
	.uleb128 0x1
	.byte	0x4
	.4byte	.LCFI3-.LCFI2
	.byte	0xe
	.uleb128 0x18
	.byte	0x4
	.4byte	.LCFI4-.LCFI3
	.byte	0xd
	.uleb128 0x7
	.align	2
.LEFDE2:
.LSFDE4:
	.4byte	.LEFDE4-.LASFDE4
.LASFDE4:
	.4byte	.Lframe0
	.4byte	.LFB34
	.4byte	.LFE34-.LFB34
	.byte	0x4
	.4byte	.LCFI5-.LFB34
	.byte	0xe
	.uleb128 0x8
	.byte	0x87
	.uleb128 0x2
	.byte	0x8e
	.uleb128 0x1
	.byte	0x4
	.4byte	.LCFI6-.LCFI5
	.byte	0xe
	.uleb128 0x10
	.byte	0x4
	.4byte	.LCFI7-.LCFI6
	.byte	0xd
	.uleb128 0x7
	.align	2
.LEFDE4:
	.text
.Letext0:
	.file 2 "/usr/share/crossworks_for_arm_3.7/include/stdint.h"
	.file 3 "../../../chip/stm32/stm32f030/lib/CMSIS/ST/STM32F0xx/Include/stm32f0xx.h"