	.syntax unified
	.cpu cortex-m0
	.fpu softvfp
	.eabi_attribute 20, 1
	.eabi_attribute 21, 1
	.eabi_attribute 23, 3
	.eabi_attribute 24, 1
	.eabi_attribute 25, 1
	.eabi_attribute 26, 1
	.eabi_attribute 30, 6
	.eabi_attribute 34, 0
	.eabi_attribute 18, 4
	.thumb
	.syntax unified
	.file	"semaphore.c"
	.text
.Ltext0:
	.section	.text.caribou_semaphore_new,"ax",%progbits
	.align	2
	.global	caribou_semaphore_new
	.code	16
	.thumb_func
	.type	caribou_semaphore_new, %function
caribou_semaphore_new:
.LFB32:
	.file 1 "/home/mike/Documents/GitHub/caribou-rtos/caribou/target/board/nucleo_f030/crossworks/../../../../src/lib/semaphore.c"
	.loc 1 28 0
	@ args = 0, pretend = 0, frame = 16
	@ frame_needed = 1, uses_anonymous_args = 0
	push	{r7, lr}
.LCFI0:
	sub	sp, sp, #16
.LCFI1:
	add	r7, sp, #0
.LCFI2:
	str	r0, [r7, #4]
	.loc 1 29 0
	movs	r0, #4
	bl	malloc
	movs	r3, r0
	str	r3, [r7, #12]
	.loc 1 30 0
	ldr	r3, [r7, #12]
	cmp	r3, #0
	beq	.L2
	.loc 1 32 0
	ldr	r3, [r7, #12]
	ldr	r2, [r7, #4]
	str	r2, [r3]
.L2:
	.loc 1 34 0
	ldr	r3, [r7, #12]
	.loc 1 35 0
	movs	r0, r3
	mov	sp, r7
	add	sp, sp, #16
	@ sp needed
	pop	{r7, pc}
.LFE32:
	.size	caribou_semaphore_new, .-caribou_semaphore_new
	.section	.text.caribou_semaphore_delete,"ax",%progbits
	.align	2
	.global	caribou_semaphore_delete
	.code	16
	.thumb_func
	.type	caribou_semaphore_delete, %function
caribou_semaphore_delete:
.LFB33:
	.loc 1 38 0
	@ args = 0, pretend = 0, frame = 8
	@ frame_needed = 1, uses_anonymous_args = 0
	push	{r7, lr}
.LCFI3:
	sub	sp, sp, #8
.LCFI4:
	add	r7, sp, #0
.LCFI5:
	str	r0, [r7, #4]
	.loc 1 39 0
	ldr	r3, [r7, #4]
	cmp	r3, #0
	beq	.L6
	.loc 1 41 0
	ldr	r3, [r7, #4]
	movs	r0, r3
	bl	free
.L6:
	.loc 1 43 0
	nop
	mov	sp, r7
	add	sp, sp, #8
	@ sp needed
	pop	{r7, pc}
.LFE33:
	.size	caribou_semaphore_delete, .-caribou_semaphore_delete
	.section	.text.caribou_semaphore_init,"ax",%progbits
	.align	2
	.global	caribou_semaphore_init
	.code	16
	.thumb_func
	.type	caribou_semaphore_init, %function
caribou_semaphore_init:
.LFB34:
	.loc 1 46 0
	@ args = 0, pretend = 0, frame = 16
	@ frame_needed = 1, uses_anonymous_args = 0
	push	{r7, lr}
.LCFI6:
	sub	sp, sp, #16
.LCFI7:
	add	r7, sp, #0
.LCFI8:
	str	r0, [r7, #4]
	str	r1, [r7]
	.loc 1 47 0
	bl	chip_interrupts_disable
	movs	r3, r0
	str	r3, [r7, #12]
	.loc 1 48 0
	ldr	r3, [r7, #4]
	ldr	r2, [r7]
	str	r2, [r3]
	.loc 1 49 0
	ldr	r3, [r7, #12]
	movs	r0, r3
	bl	chip_interrupts_set
	.loc 1 50 0
	ldr	r3, [r7, #4]
	.loc 1 51 0
	movs	r0, r3
	mov	sp, r7
	add	sp, sp, #16
	@ sp needed
	pop	{r7, pc}
.LFE34:
	.size	caribou_semaphore_init, .-caribou_semaphore_init
	.section	.text.caribou_semaphore_signal,"ax",%progbits
	.align	2
	.global	caribou_semaphore_signal
	.code	16
	.thumb_func
	.type	caribou_semaphore_signal, %function
caribou_semaphore_signal:
.LFB35:
	.loc 1 59 0
	@ args = 0, pretend = 0, frame = 16
	@ frame_needed = 1, uses_anonymous_args = 0
	push	{r7, lr}
.LCFI9:
	sub	sp, sp, #16
.LCFI10:
	add	r7, sp, #0
.LCFI11:
	str	r0, [r7, #4]
	.loc 1 60 0
	bl	chip_interrupts_disable
	movs	r3, r0
	str	r3, [r7, #12]
	.loc 1 61 0
	ldr	r3, [r7, #4]
	ldr	r3, [r3]
	adds	r2, r3, #1
	ldr	r3, [r7, #4]
	str	r2, [r3]
	.loc 1 62 0
	ldr	r3, [r7, #12]
	movs	r0, r3
	bl	chip_interrupts_set
	.loc 1 63 0
	movs	r3, #1
	.loc 1 64 0
	movs	r0, r3
	mov	sp, r7
	add	sp, sp, #16
	@ sp needed
	pop	{r7, pc}
.LFE35:
	.size	caribou_semaphore_signal, .-caribou_semaphore_signal
	.section	.text.caribou_semaphore_wait,"ax",%progbits
	.align	2
	.global	caribou_semaphore_wait
	.code	16
	.thumb_func
	.type	caribou_semaphore_wait, %function
caribou_semaphore_wait:
.LFB36:
	.loc 1 72 0
	@ args = 0, pretend = 0, frame = 32
	@ frame_needed = 1, uses_anonymous_args = 0
	push	{r4, r7, lr}
.LCFI12:
	sub	sp, sp, #36
.LCFI13:
	add	r7, sp, #0
.LCFI14:
	str	r0, [r7, #12]
	str	r2, [r7]
	str	r3, [r7, #4]
	.loc 1 73 0
	movs	r3, #31
	adds	r3, r7, r3
	movs	r2, #1
	strb	r2, [r3]
	.loc 1 74 0
	bl	caribou_timer_ticks
	movs	r3, r0
	movs	r4, r1
	str	r3, [r7, #16]
	str	r4, [r7, #20]
	.loc 1 75 0
	b	.L12
.L15:
	.loc 1 77 0
	ldr	r3, [r7]
	ldr	r4, [r7, #4]
	ldr	r0, [r7, #16]
	ldr	r1, [r7, #20]
	movs	r2, r3
	movs	r3, r4
	bl	caribou_timer_ticks_timeout
	subs	r3, r0, #0
	beq	.L13
	.loc 1 79 0
	movs	r3, #31
	adds	r3, r7, r3
	movs	r2, #0
	strb	r2, [r3]
	.loc 1 80 0
	b	.L14
.L13:
	.loc 1 82 0
	bl	caribou_thread_yield
.L12:
	.loc 1 75 0
	movs	r3, #31
	adds	r4, r7, r3
	ldr	r3, [r7, #12]
	movs	r0, r3
	bl	caribou_semaphore_try_wait
	movs	r3, r0
	strb	r3, [r4]
	movs	r3, #31
	adds	r3, r7, r3
	ldrb	r3, [r3]
	cmp	r3, #0
	beq	.L15
.L14:
	.loc 1 84 0
	movs	r3, #31
	adds	r3, r7, r3
	ldrb	r3, [r3]
	.loc 1 85 0
	movs	r0, r3
	mov	sp, r7
	add	sp, sp, #36
	@ sp needed
	pop	{r4, r7, pc}
.LFE36:
	.size	caribou_semaphore_wait, .-caribou_semaphore_wait
	.section	.text.caribou_semaphore_try_wait,"ax",%progbits
	.align	2
	.global	caribou_semaphore_try_wait
	.code	16
	.thumb_func
	.type	caribou_semaphore_try_wait, %function
caribou_semaphore_try_wait:
.LFB37:
	.loc 1 93 0
	@ args = 0, pretend = 0, frame = 16
	@ frame_needed = 1, uses_anonymous_args = 0
	push	{r7, lr}
.LCFI15:
	sub	sp, sp, #16
.LCFI16:
	add	r7, sp, #0
.LCFI17:
	str	r0, [r7, #4]
	.loc 1 94 0
	movs	r3, #15
	adds	r3, r7, r3
	movs	r2, #0
	strb	r2, [r3]
	.loc 1 95 0
	bl	chip_interrupts_disable
	movs	r3, r0
	str	r3, [r7, #8]
	.loc 1 96 0
	ldr	r3, [r7, #4]
	ldr	r3, [r3]
	cmp	r3, #0
	ble	.L18
	.loc 1 98 0
	ldr	r3, [r7, #4]
	ldr	r3, [r3]
	subs	r2, r3, #1
	ldr	r3, [r7, #4]
	str	r2, [r3]
	.loc 1 99 0
	movs	r3, #15
	adds	r3, r7, r3
	movs	r2, #1
	strb	r2, [r3]
.L18:
	.loc 1 101 0
	ldr	r3, [r7, #8]
	movs	r0, r3
	bl	chip_interrupts_set
	.loc 1 102 0
	movs	r3, #15
	adds	r3, r7, r3
	ldrb	r3, [r3]
	.loc 1 103 0
	movs	r0, r3
	mov	sp, r7
	add	sp, sp, #16
	@ sp needed
	pop	{r7, pc}
.LFE37:
	.size	caribou_semaphore_try_wait, .-caribou_semaphore_try_wait
	.section	.debug_frame,"",%progbits
.Lframe0:
	.4byte	.LECIE0-.LSCIE0
.LSCIE0:
	.4byte	0xffffffff
	.byte	0x3
	.ascii	"\000"
	.uleb128 0x1
	.sleb128 -4
	.uleb128 0xe
	.byte	0xc
	.uleb128 0xd
	.uleb128 0
	.align	2
.LECIE0:
.LSFDE0:
	.4byte	.LEFDE0-.LASFDE0
.LASFDE0:
	.4byte	.Lframe0
	.4byte	.LFB32
	.4byte	.LFE32-.LFB32
	.byte	0x4
	.4byte	.LCFI0-.LFB32
	.byte	0xe
	.uleb128 0x8
	.byte	0x87
	.uleb128 0x2
	.byte	0x8e
	.uleb128 0x1
	.byte	0x4
	.4byte	.LCFI1-.LCFI0
	.byte	0xe
	.uleb128 0x18
	.byte	0x4
	.4byte	.LCFI2-.LCFI1
	.byte	0xd
	.uleb128 0x7
	.align	2
.LEFDE0:
.LSFDE2:
	.4byte	.LEFDE2-.LASFDE2
.LASFDE2:
	.4byte	.Lframe0
	.4byte	.LFB33
	.4byte	.LFE33-.LFB33
	.byte	0x4
	.4byte	.LCFI3-.LFB33
	.byte	0xe
	.uleb128 0x8
	.byte	0x87
	.uleb128 0x2
	.byte	0x8e
	.uleb128 0x1
	.byte	0x4
	.4byte	.LCFI4-.LCFI3
	.byte	0xe
	.uleb128 0x10
	.byte	0x4
	.4byte	.LCFI5-.LCFI4
	.byte	0xd
	.uleb128 0x7
	.align	2
.LEFDE2:
.LSFDE4:
	.4byte	.LEFDE4-.LASFDE4
.LASFDE4:
	.4byte	.Lframe0
	.4byte	.LFB34
	.4byte	.LFE34-.LFB34
	.byte	0x4
	.4byte	.LCFI6-.LFB34
	.byte	0xe
	.uleb128 0x8
	.byte	0x87
	.uleb128 0x2
	.byte	0x8e
	.uleb128 0x1
	.byte	0x4
	.4byte	.LCFI7-.LCFI6
	.byte	0xe
	.uleb128 0x18
	.byte	0x4
	.4byte	.LCFI8-.LCFI7
	.byte	0xd
	.uleb128 0x7
	.align	2
.LEFDE4:
.LSFDE6:
	.4byte	.LEFDE6-.LASFDE6
.LASFDE6:
	.4byte	.Lframe0
	.4byte	.LFB35
	.4byte	.LFE35-.LFB35
	.byte	0x4
	.4byte	.LCFI9-.LFB35
	.byte	0xe
	.uleb128 0x8
	.byte	0x87
	.uleb128 0x2
	.byte	0x8e
	.uleb128 0x1
	.byte	0x4
	.4byte	.LCFI10-.LCFI9
	.byte	0xe
	.uleb128 0x18
	.byte	0x4
	.4byte	.LCFI11-.LCFI10
	.byte	0xd
	.uleb128 0x7
	.align	2
.LEFDE6:
.LSFDE8:
	.4byte	.LEFDE8-.LASFDE8
.LASFDE8:
	.4byte	.Lframe0
	.4byte	.LFB36
	.4byte	.LFE36-.LFB36
	.byte	0x4
	.4byte	.LCFI12-.LFB36
	.byte	0xe
	.uleb128 0xc
	.byte	0x84
	.uleb128 0x3
	.byte	0x87
	.uleb128 0x2
	.byte	0x8e
	.uleb128 0x1
	.byte	0x4
	.4byte	.LCFI13-.LCFI12
	.byte	0xe
	.uleb128 0x30
	.byte	0x4
	.4byte	.LCFI14-.LCFI13
	.byte	0xd
	.uleb128 0x7
	.align	2
.LEFDE8:
.LSFDE10:
	.4byte	.LEFDE10-.LASFDE10
.LASFDE10:
	.4byte	.Lframe0
	.4byte	.LFB37
	.4byte	.LFE37-.LFB37
	.byte	0x4
	.4byte	.LCFI15-.LFB37
	.byte	0xe
	.uleb128 0x8
	.byte	0x87
	.uleb128 0x2
	.byte	0x8e
	.uleb128 0x1
	.byte	0x4
	.4byte	.LCFI16-.LCFI15
	.byte	0xe
	.uleb128 0x18
	.byte	0x4
	.4byte	.LCFI17-.LCFI16
	.byte	0xd
	.uleb128 0x7
	.align	2
.LEFDE10:
	.text
.Letext0:
	.file 2 "/usr/share/crossworks_for_arm_3.7/include/stdint.h"
	.file 3 "../../../../include/caribou/lib/semaphore.h"