	.syntax unified
	.cpu cortex-m0
	.fpu softvfp
	.eabi_attribute 20, 1
	.eabi_attribute 21, 1
	.eabi_attribute 23, 3
	.eabi_attribute 24, 1
	.eabi_attribute 25, 1
	.eabi_attribute 26, 1
	.eabi_attribute 30, 6
	.eabi_attribute 34, 0
	.eabi_attribute 18, 4
	.thumb
	.syntax unified
	.file	"nova_heap.c"
	.text
.Ltext0:
	.section	.bss.heap,"aw",%nobits
	.align	2
	.type	heap, %object
	.size	heap, 4
heap:
	.space	4
	.section	.text.nova_heap_init,"ax",%progbits
	.align	2
	.global	nova_heap_init
	.code	16
	.thumb_func
	.type	nova_heap_init, %function
nova_heap_init:
.LFB32:
	.file 1 "/home/mike/Documents/GitHub/caribou-rtos/caribou/target/board/nucleo_f030/crossworks/../../../../src/lib/nova_heap.c"
	.loc 1 32 0
	@ args = 0, pretend = 0, frame = 8
	@ frame_needed = 1, uses_anonymous_args = 0
	push	{r7, lr}
.LCFI0:
	sub	sp, sp, #8
.LCFI1:
	add	r7, sp, #0
.LCFI2:
	str	r0, [r7, #4]
	str	r1, [r7]
	.loc 1 33 0
	ldr	r3, .L2
	ldr	r2, [r7, #4]
	str	r2, [r3]
	.loc 1 34 0
	ldr	r3, .L2
	ldr	r3, [r3]
	movs	r2, #0
	str	r2, [r3]
	.loc 1 35 0
	ldr	r3, .L2
	ldr	r3, [r3]
	ldr	r1, [r7]
	ldr	r2, [r7, #4]
	subs	r2, r1, r2
	str	r2, [r3, #4]
	.loc 1 36 0
	nop
	mov	sp, r7
	add	sp, sp, #8
	@ sp needed
	pop	{r7, pc}
.L3:
	.align	2
.L2:
	.word	heap
.LFE32:
	.size	nova_heap_init, .-nova_heap_init
	.section	.text.nova_heap_calloc,"ax",%progbits
	.align	2
	.global	nova_heap_calloc
	.code	16
	.thumb_func
	.type	nova_heap_calloc, %function
nova_heap_calloc:
.LFB33:
	.loc 1 44 0
	@ args = 0, pretend = 0, frame = 16
	@ frame_needed = 1, uses_anonymous_args = 0
	push	{r7, lr}
.LCFI3:
	sub	sp, sp, #16
.LCFI4:
	add	r7, sp, #0
.LCFI5:
	str	r0, [r7, #4]
	str	r1, [r7]
	.loc 1 45 0
	ldr	r3, [r7, #4]
	ldr	r2, [r7]
	muls	r3, r2
	movs	r0, r3
	bl	malloc
	movs	r3, r0
	str	r3, [r7, #12]
	.loc 1 46 0
	ldr	r3, [r7, #12]
	.loc 1 47 0
	movs	r0, r3
	mov	sp, r7
	add	sp, sp, #16
	@ sp needed
	pop	{r7, pc}
.LFE33:
	.size	nova_heap_calloc, .-nova_heap_calloc
	.section	.text.nova_heap_malloc,"ax",%progbits
	.align	2
	.global	nova_heap_malloc
	.code	16
	.thumb_func
	.type	nova_heap_malloc, %function
nova_heap_malloc:
.LFB34:
	.loc 1 54 0
	@ args = 0, pretend = 0, frame = 32
	@ frame_needed = 1, uses_anonymous_args = 0
	push	{r7, lr}
.LCFI6:
	sub	sp, sp, #32
.LCFI7:
	add	r7, sp, #0
.LCFI8:
	str	r0, [r7, #4]
	.loc 1 60 0
	bl	chip_interrupts_disable
	movs	r3, r0
	str	r3, [r7, #12]
	.loc 1 62 0
	ldr	r3, [r7, #4]
	adds	r3, r3, #19
	movs	r2, #15
	bics	r3, r2
	str	r3, [r7, #4]
	.loc 1 63 0
	ldr	r3, .L15
	ldr	r3, [r3]
	str	r3, [r7, #28]
	.loc 1 64 0
	movs	r3, #0
	str	r3, [r7, #24]
	.loc 1 65 0
	movs	r3, #1
	rsbs	r3, r3, #0
	str	r3, [r7, #16]
	.loc 1 66 0
	movs	r3, #0
	str	r3, [r7, #20]
	.loc 1 68 0
	b	.L7
.L13:
	.loc 1 70 0
	ldr	r3, [r7, #28]
	ldr	r2, [r3, #4]
	ldr	r3, [r7, #4]
	cmp	r2, r3
	bne	.L8
	.loc 1 72 0
	ldr	r3, [r7, #24]
	cmp	r3, #0
	beq	.L9
	.loc 1 74 0
	ldr	r3, [r7, #28]
	ldr	r2, [r3]
	ldr	r3, [r7, #24]
	str	r2, [r3]
	b	.L10
.L9:
	.loc 1 78 0
	ldr	r3, [r7, #28]
	ldr	r2, [r3]
	ldr	r3, .L15
	str	r2, [r3]
.L10:
	.loc 1 80 0
	ldr	r3, [r7, #28]
	ldr	r2, [r7, #4]
	str	r2, [r3]
	.loc 1 81 0
	ldr	r3, [r7, #12]
	movs	r0, r3
	bl	chip_interrupts_set
	.loc 1 82 0
	ldr	r3, [r7, #28]
	adds	r3, r3, #4
	b	.L11
.L8:
	.loc 1 85 0
	ldr	r3, [r7, #28]
	ldr	r2, [r3, #4]
	ldr	r3, [r7, #4]
	cmp	r2, r3
	bls	.L12
	.loc 1 85 0 is_stmt 0 discriminator 1
	ldr	r3, [r7, #28]
	ldr	r2, [r3, #4]
	ldr	r3, [r7, #16]
	cmp	r2, r3
	bcs	.L12
	.loc 1 87 0 is_stmt 1
	ldr	r3, [r7, #28]
	str	r3, [r7, #20]
	.loc 1 88 0
	ldr	r3, [r7, #28]
	ldr	r3, [r3, #4]
	str	r3, [r7, #16]
.L12:
	.loc 1 91 0
	ldr	r3, [r7, #28]
	str	r3, [r7, #24]
	.loc 1 92 0
	ldr	r3, [r7, #28]
	ldr	r3, [r3]
	str	r3, [r7, #28]
.L7:
	.loc 1 68 0
	ldr	r3, [r7, #28]
	cmp	r3, #0
	bne	.L13
	.loc 1 94 0
	ldr	r3, [r7, #20]
	cmp	r3, #0
	beq	.L14
	.loc 1 96 0
	ldr	r3, [r7, #20]
	ldr	r2, [r3, #4]
	ldr	r3, [r7, #4]
	subs	r2, r2, r3
	ldr	r3, [r7, #20]
	str	r2, [r3, #4]
	.loc 1 97 0
	ldr	r2, [r7, #16]
	ldr	r3, [r7, #4]
	subs	r3, r2, r3
	ldr	r2, [r7, #20]
	adds	r3, r2, r3
	str	r3, [r7, #28]
	.loc 1 98 0
	ldr	r3, [r7, #28]
	ldr	r2, [r7, #4]
	str	r2, [r3]
	.loc 1 99 0
	ldr	r3, [r7, #12]
	movs	r0, r3
	bl	chip_interrupts_set
	.loc 1 100 0
	ldr	r3, [r7, #28]
	adds	r3, r3, #4
	b	.L11
.L14:
	.loc 1 104 0
	ldr	r3, [r7, #12]
	movs	r0, r3
	bl	chip_interrupts_set
	.loc 1 105 0
	movs	r3, #0
.L11:
	.loc 1 107 0
	movs	r0, r3
	mov	sp, r7
	add	sp, sp, #32
	@ sp needed
	pop	{r7, pc}
.L16:
	.align	2
.L15:
	.word	heap
.LFE34:
	.size	nova_heap_malloc, .-nova_heap_malloc
	.section	.text.nova_heap_free,"ax",%progbits
	.align	2
	.global	nova_heap_free
	.code	16
	.thumb_func
	.type	nova_heap_free, %function
nova_heap_free:
.LFB35:
	.loc 1 115 0
	@ args = 0, pretend = 0, frame = 32
	@ frame_needed = 1, uses_anonymous_args = 0
	push	{r7, lr}
.LCFI9:
	sub	sp, sp, #32
.LCFI10:
	add	r7, sp, #0
.LCFI11:
	str	r0, [r7, #4]
	.loc 1 119 0
	ldr	r3, [r7, #4]
	cmp	r3, #0
	bne	.LCB250
	b	.L27	@long jump
.LCB250:
.LBB2:
	.loc 1 121 0
	bl	chip_interrupts_disable
	movs	r3, r0
	str	r3, [r7, #20]
	.loc 1 123 0
	ldr	r3, [r7, #4]
	subs	r3, r3, #4
	str	r3, [r7, #4]
	.loc 1 125 0
	ldr	r3, [r7, #4]
	ldr	r3, [r3]
	str	r3, [r7, #16]
	.loc 1 126 0
	ldr	r3, [r7, #4]
	cmp	r3, #0
	beq	.L19
	.loc 1 129 0
	ldr	r3, .L28
	ldr	r3, [r3]
	cmp	r3, #0
	bne	.L20
	.loc 1 132 0
	ldr	r3, .L28
	ldr	r2, [r7, #4]
	str	r2, [r3]
	.loc 1 133 0
	ldr	r3, .L28
	ldr	r3, [r3]
	movs	r2, #0
	str	r2, [r3]
	.loc 1 134 0
	ldr	r3, .L28
	ldr	r3, [r3]
	ldr	r2, [r7, #16]
	str	r2, [r3, #4]
	b	.L19
.L20:
	.loc 1 139 0
	ldr	r3, [r7, #4]
	str	r3, [r7, #12]
	ldr	r3, .L28
	ldr	r3, [r3]
	str	r3, [r7, #28]
	movs	r3, #0
	str	r3, [r7, #24]
	.loc 1 140 0
	b	.L21
.L23:
	.loc 1 142 0
	ldr	r3, [r7, #28]
	str	r3, [r7, #24]
	ldr	r3, [r7, #28]
	ldr	r3, [r3]
	str	r3, [r7, #28]
.L21:
	.loc 1 140 0
	ldr	r3, [r7, #28]
	cmp	r3, #0
	beq	.L22
	.loc 1 140 0 is_stmt 0 discriminator 1
	ldr	r2, [r7, #28]
	ldr	r3, [r7, #4]
	cmp	r2, r3
	bcc	.L23
.L22:
	.loc 1 153 0 is_stmt 1
	ldr	r3, [r7, #12]
	ldr	r2, [r7, #28]
	str	r2, [r3]
	.loc 1 154 0
	ldr	r3, [r7, #12]
	ldr	r2, [r7, #16]
	str	r2, [r3, #4]
	.loc 1 155 0
	ldr	r3, [r7, #24]
	cmp	r3, #0
	beq	.L24
	.loc 1 156 0
	ldr	r3, [r7, #24]
	ldr	r2, [r7, #12]
	str	r2, [r3]
	b	.L25
.L24:
	.loc 1 158 0
	ldr	r3, .L28
	ldr	r2, [r7, #12]
	str	r2, [r3]
.L25:
	.loc 1 160 0
	ldr	r3, [r7, #28]
	cmp	r3, #0
	beq	.L26
	.loc 1 160 0 is_stmt 0 discriminator 1
	ldr	r2, [r7, #12]
	ldr	r3, [r7, #16]
	adds	r2, r2, r3
	ldr	r3, [r7, #28]
	cmp	r2, r3
	bne	.L26
	.loc 1 162 0 is_stmt 1
	ldr	r3, [r7, #12]
	ldr	r2, [r3, #4]
	ldr	r3, [r7, #28]
	ldr	r3, [r3, #4]
	adds	r2, r2, r3
	ldr	r3, [r7, #12]
	str	r2, [r3, #4]
	.loc 1 163 0
	ldr	r3, [r7, #28]
	ldr	r2, [r3]
	ldr	r3, [r7, #12]
	str	r2, [r3]
.L26:
	.loc 1 166 0
	ldr	r3, [r7, #24]
	cmp	r3, #0
	beq	.L19
	.loc 1 166 0 is_stmt 0 discriminator 1
	ldr	r3, [r7, #24]
	ldr	r3, [r3, #4]
	ldr	r2, [r7, #24]
	adds	r2, r2, r3
	ldr	r3, [r7, #12]
	cmp	r2, r3
	bne	.L19
	.loc 1 168 0 is_stmt 1
	ldr	r3, [r7, #24]
	ldr	r2, [r3, #4]
	ldr	r3, [r7, #12]
	ldr	r3, [r3, #4]
	adds	r2, r2, r3
	ldr	r3, [r7, #24]
	str	r2, [r3, #4]
	.loc 1 169 0
	ldr	r3, [r7, #12]
	ldr	r2, [r3]
	ldr	r3, [r7, #24]
	str	r2, [r3]
.L19:
	.loc 1 173 0
	ldr	r3, [r7, #20]
	movs	r0, r3
	bl	chip_interrupts_set
.L27:
.LBE2:
	.loc 1 175 0
	nop
	mov	sp, r7
	add	sp, sp, #32
	@ sp needed
	pop	{r7, pc}
.L29:
	.align	2
.L28:
	.word	heap
.LFE35:
	.size	nova_heap_free, .-nova_heap_free
	.section	.text.nova_heap_realloc,"ax",%progbits
	.align	2
	.global	nova_heap_realloc
	.code	16
	.thumb_func
	.type	nova_heap_realloc, %function
nova_heap_realloc:
.LFB36:
	.loc 1 185 0
	@ args = 0, pretend = 0, frame = 16
	@ frame_needed = 1, uses_anonymous_args = 0
	push	{r7, lr}
.LCFI12:
	sub	sp, sp, #16
.LCFI13:
	add	r7, sp, #0
.LCFI14:
	str	r0, [r7, #4]
	str	r1, [r7]
	.loc 1 186 0
	movs	r3, #0
	str	r3, [r7, #12]
	.loc 1 187 0
	ldr	r3, [r7, #4]
	cmp	r3, #0
	beq	.L31
	.loc 1 187 0 is_stmt 0 discriminator 1
	ldr	r3, [r7, #4]
	subs	r3, r3, #4
	ldr	r3, [r3]
	b	.L32
.L31:
	.loc 1 187 0 discriminator 2
	movs	r3, #0
.L32:
	.loc 1 187 0 discriminator 4
	str	r3, [r7, #8]
	.loc 1 188 0 is_stmt 1 discriminator 4
	ldr	r2, [r7, #8]
	ldr	r3, [r7]
	cmp	r2, r3
	beq	.L33
	.loc 1 192 0
	ldr	r3, [r7]
	movs	r0, r3
	bl	malloc
	movs	r3, r0
	str	r3, [r7, #12]
	.loc 1 193 0
	ldr	r3, [r7, #12]
	cmp	r3, #0
	beq	.L33
	.loc 1 193 0 is_stmt 0 discriminator 1
	ldr	r3, [r7, #4]
	cmp	r3, #0
	beq	.L33
.LBB3:
	.loc 1 195 0 is_stmt 1
	ldr	r2, [r7, #8]
	ldr	r3, [r7]
	cmp	r3, r2
	bls	.L34
	movs	r3, r2
.L34:
	ldr	r1, [r7, #4]
	ldr	r0, [r7, #12]
	movs	r2, r3
	bl	memcpy
	.loc 1 196 0
	ldr	r3, [r7, #4]
	movs	r0, r3
	bl	free
.L33:
.LBE3:
	.loc 1 199 0
	ldr	r3, [r7, #12]
	.loc 1 200 0
	movs	r0, r3
	mov	sp, r7
	add	sp, sp, #16
	@ sp needed
	pop	{r7, pc}
.LFE36:
	.size	nova_heap_realloc, .-nova_heap_realloc
	.section	.debug_frame,"",%progbits
.Lframe0:
	.4byte	.LECIE0-.LSCIE0
.LSCIE0:
	.4byte	0xffffffff
	.byte	0x3
	.ascii	"\000"
	.uleb128 0x1
	.sleb128 -4
	.uleb128 0xe
	.byte	0xc
	.uleb128 0xd
	.uleb128 0
	.align	2
.LECIE0:
.LSFDE0:
	.4byte	.LEFDE0-.LASFDE0
.LASFDE0:
	.4byte	.Lframe0
	.4byte	.LFB32
	.4byte	.LFE32-.LFB32
	.byte	0x4
	.4byte	.LCFI0-.LFB32
	.byte	0xe
	.uleb128 0x8
	.byte	0x87
	.uleb128 0x2
	.byte	0x8e
	.uleb128 0x1
	.byte	0x4
	.4byte	.LCFI1-.LCFI0
	.byte	0xe
	.uleb128 0x10
	.byte	0x4
	.4byte	.LCFI2-.LCFI1
	.byte	0xd
	.uleb128 0x7
	.align	2
.LEFDE0:
.LSFDE2:
	.4byte	.LEFDE2-.LASFDE2
.LASFDE2:
	.4byte	.Lframe0
	.4byte	.LFB33
	.4byte	.LFE33-.LFB33
	.byte	0x4
	.4byte	.LCFI3-.LFB33
	.byte	0xe
	.uleb128 0x8
	.byte	0x87
	.uleb128 0x2
	.byte	0x8e
	.uleb128 0x1
	.byte	0x4
	.4byte	.LCFI4-.LCFI3
	.byte	0xe
	.uleb128 0x18
	.byte	0x4
	.4byte	.LCFI5-.LCFI4
	.byte	0xd
	.uleb128 0x7
	.align	2
.LEFDE2:
.LSFDE4:
	.4byte	.LEFDE4-.LASFDE4
.LASFDE4:
	.4byte	.Lframe0
	.4byte	.LFB34
	.4byte	.LFE34-.LFB34
	.byte	0x4
	.4byte	.LCFI6-.LFB34
	.byte	0xe
	.uleb128 0x8
	.byte	0x87
	.uleb128 0x2
	.byte	0x8e
	.uleb128 0x1
	.byte	0x4
	.4byte	.LCFI7-.LCFI6
	.byte	0xe
	.uleb128 0x28
	.byte	0x4
	.4byte	.LCFI8-.LCFI7
	.byte	0xd
	.uleb128 0x7
	.align	2
.LEFDE4:
.LSFDE6:
	.4byte	.LEFDE6-.LASFDE6
.LASFDE6:
	.4byte	.Lframe0
	.4byte	.LFB35
	.4byte	.LFE35-.LFB35
	.byte	0x4
	.4byte	.LCFI9-.LFB35
	.byte	0xe
	.uleb128 0x8
	.byte	0x87
	.uleb128 0x2
	.byte	0x8e
	.uleb128 0x1
	.byte	0x4
	.4byte	.LCFI10-.LCFI9
	.byte	0xe
	.uleb128 0x28
	.byte	0x4
	.4byte	.LCFI11-.LCFI10
	.byte	0xd
	.uleb128 0x7
	.align	2
.LEFDE6:
.LSFDE8:
	.4byte	.LEFDE8-.LASFDE8
.LASFDE8:
	.4byte	.Lframe0
	.4byte	.LFB36
	.4byte	.LFE36-.LFB36
	.byte	0x4
	.4byte	.LCFI12-.LFB36
	.byte	0xe
	.uleb128 0x8
	.byte	0x87
	.uleb128 0x2
	.byte	0x8e
	.uleb128 0x1
	.byte	0x4
	.4byte	.LCFI13-.LCFI12
	.byte	0xe
	.uleb128 0x18
	.byte	0x4
	.4byte	.LCFI14-.LCFI13
	.byte	0xd
	.uleb128 0x7
	.align	2
.LEFDE8:
	.text
.Letext0:
	.file 2 "/usr/share/crossworks_for_arm_3.7/include/stdint.h"
	.file 3 "/usr/share/crossworks_for_arm_3.7/include/stddef.h"