	.syntax unified
	.cpu cortex-m0
	.fpu softvfp
	.eabi_attribute 20, 1
	.eabi_attribute 21, 1
	.eabi_attribute 23, 3
	.eabi_attribute 24, 1
	.eabi_attribute 25, 1
	.eabi_attribute 26, 1
	.eabi_attribute 30, 6
	.eabi_attribute 34, 0
	.eabi_attribute 18, 4
	.thumb
	.syntax unified
	.file	"nucleo_f091_demo.c"
	.text
.Ltext0:
	.global	button_thread_stack
	.section	.bss.button_thread_stack,"aw",%nobits
	.align	2
	.type	button_thread_stack, %object
	.size	button_thread_stack, 1024
button_thread_stack:
	.space	1024
	.global	led_thread_stack
	.section	.bss.led_thread_stack,"aw",%nobits
	.align	2
	.type	led_thread_stack, %object
	.size	led_thread_stack, 1024
led_thread_stack:
	.space	1024
	.global	queue
	.section	.bss.queue,"aw",%nobits
	.align	2
	.type	queue, %object
	.size	queue, 12
queue:
	.space	12
	.global	queue_msgs
	.section	.bss.queue_msgs,"aw",%nobits
	.align	2
	.type	queue_msgs, %object
	.size	queue_msgs, 16
queue_msgs:
	.space	16
	.section	.rodata.str1.4,"aMS",%progbits,1
	.align	2
.LC1:
	.ascii	"D\000"
	.align	2
.LC3:
	.ascii	"U\000"
	.section	.text.button_thread,"ax",%progbits
	.align	2
	.global	button_thread
	.code	16
	.thumb_func
	.type	button_thread, %function
button_thread:
.LFB32:
	.file 1 "/home/mike/Documents/GitHub/caribou-rtos/caribou/target/board/nucleo_f091/crossworks/../src/nucleo_f091_demo.c"
	.loc 1 40 0
	@ args = 0, pretend = 0, frame = 16
	@ frame_needed = 1, uses_anonymous_args = 0
	push	{r7, lr}
.LCFI0:
	sub	sp, sp, #16
.LCFI1:
	add	r7, sp, #0
.LCFI2:
	str	r0, [r7, #4]
.L4:
.LBB2:
	.loc 1 43 0
	movs	r0, #2
	bl	malloc
	movs	r3, r0
	str	r3, [r7, #12]
	.loc 1 44 0
	movs	r0, #10
	movs	r1, #0
	bl	caribou_thread_sleep_current
	.loc 1 45 0
	ldr	r3, .L5
	ldr	r2, [r3]
	ldr	r3, .L5
	ldrh	r3, [r3, #4]
	movs	r1, r3
	movs	r0, r2
	bl	chip_gpio_pinstate
	subs	r3, r0, #0
	bne	.L2
	.loc 1 46 0
	ldr	r2, .L5+4
	ldr	r3, [r7, #12]
	movs	r1, r2
	movs	r0, r3
	bl	strcpy
	b	.L3
.L2:
	.loc 1 48 0
	ldr	r2, .L5+8
	ldr	r3, [r7, #12]
	movs	r1, r2
	movs	r0, r3
	bl	strcpy
.L3:
	.loc 1 49 0
	ldr	r1, [r7, #12]
	ldr	r0, .L5+12
	movs	r2, #0
	movs	r3, #0
	bl	caribou_queue_post
.LBE2:
	.loc 1 50 0
	b	.L4
.L6:
	.align	2
.L5:
	.word	pb1
	.word	.LC1
	.word	.LC3
	.word	queue
.LFE32:
	.size	button_thread, .-button_thread
	.section	.text.led_thread,"ax",%progbits
	.align	2
	.global	led_thread
	.code	16
	.thumb_func
	.type	led_thread, %function
led_thread:
.LFB33:
	.loc 1 59 0
	@ args = 0, pretend = 0, frame = 16
	@ frame_needed = 1, uses_anonymous_args = 0
	push	{r7, lr}
.LCFI3:
	sub	sp, sp, #16
.LCFI4:
	add	r7, sp, #0
.LCFI5:
	str	r0, [r7, #4]
.L11:
.LBB3:
	.loc 1 62 0
	movs	r3, #0
	str	r3, [r7, #12]
	.loc 1 63 0
	movs	r3, #12
	adds	r1, r7, r3
	ldr	r0, .L12
	movs	r2, #0
	movs	r3, #0
	bl	caribou_queue_take_first
	subs	r3, r0, #0
	beq	.L11
	.loc 1 65 0
	ldr	r3, [r7, #12]
	ldr	r2, .L12+4
	movs	r1, r2
	movs	r0, r3
	bl	strcmp
	subs	r3, r0, #0
	bne	.L9
	.loc 1 67 0
	ldr	r3, .L12+8
	ldr	r2, [r3]
	ldr	r3, .L12+8
	ldrh	r3, [r3, #4]
	movs	r1, r3
	movs	r0, r2
	bl	chip_gpio_set
	b	.L10
.L9:
	.loc 1 71 0
	ldr	r3, .L12+8
	ldr	r2, [r3]
	ldr	r3, .L12+8
	ldrh	r3, [r3, #4]
	movs	r1, r3
	movs	r0, r2
	bl	chip_gpio_reset
.L10:
	.loc 1 73 0
	ldr	r3, [r7, #12]
	movs	r0, r3
	bl	free
.LBE3:
	.loc 1 75 0
	b	.L11
.L13:
	.align	2
.L12:
	.word	queue
	.word	.LC1
	.word	led1
.LFE33:
	.size	led_thread, .-led_thread
	.section	.text.board_idle,"ax",%progbits
	.align	2
	.global	board_idle
	.code	16
	.thumb_func
	.type	board_idle, %function
board_idle:
.LFB34:
	.loc 1 79 0
	@ args = 0, pretend = 0, frame = 0
	@ frame_needed = 1, uses_anonymous_args = 0
	push	{r4, r5, r7, lr}
.LCFI6:
	add	r7, sp, #0
.LCFI7:
	.loc 1 83 0
	ldr	r3, .L19
	ldr	r0, [r3]
	ldr	r1, [r3, #4]
	movs	r3, #250
	lsls	r3, r3, #2
	movs	r4, #0
	movs	r2, r3
	movs	r3, r4
	bl	caribou_timer_ticks_timeout
	subs	r3, r0, #0
	beq	.L18
	.loc 1 85 0
	ldr	r3, .L19+4
	ldrb	r3, [r3]
	rsbs	r2, r3, #0
	adcs	r3, r3, r2
	uxtb	r3, r3
	movs	r2, r3
	ldr	r3, .L19+4
	strb	r2, [r3]
	.loc 1 86 0
	ldr	r3, .L19+4
	ldrb	r3, [r3]
	cmp	r3, #0
	beq	.L16
	.loc 1 88 0
	ldr	r3, .L19+8
	ldr	r2, [r3]
	ldr	r3, .L19+8
	ldrh	r3, [r3, #4]
	movs	r1, r3
	movs	r0, r2
	bl	chip_gpio_set
	.loc 1 89 0
	ldr	r3, .L19+12
	ldr	r2, [r3]
	ldr	r3, .L19+12
	ldrh	r3, [r3, #4]
	movs	r1, r3
	movs	r0, r2
	bl	chip_gpio_reset
	.loc 1 90 0
	ldr	r3, .L19+16
	ldr	r2, [r3]
	ldr	r3, .L19+16
	ldrh	r3, [r3, #4]
	movs	r1, r3
	movs	r0, r2
	bl	chip_gpio_set
	.loc 1 91 0
	ldr	r3, .L19+20
	ldr	r2, [r3]
	ldr	r3, .L19+20
	ldrh	r3, [r3, #4]
	movs	r1, r3
	movs	r0, r2
	bl	chip_gpio_reset
	b	.L17
.L16:
	.loc 1 96 0
	ldr	r3, .L19+8
	ldr	r2, [r3]
	ldr	r3, .L19+8
	ldrh	r3, [r3, #4]
	movs	r1, r3
	movs	r0, r2
	bl	chip_gpio_reset
	.loc 1 97 0
	ldr	r3, .L19+12
	ldr	r2, [r3]
	ldr	r3, .L19+12
	ldrh	r3, [r3, #4]
	movs	r1, r3
	movs	r0, r2
	bl	chip_gpio_set
	.loc 1 98 0
	ldr	r3, .L19+16
	ldr	r2, [r3]
	ldr	r3, .L19+16
	ldrh	r3, [r3, #4]
	movs	r1, r3
	movs	r0, r2
	bl	chip_gpio_reset
	.loc 1 99 0
	ldr	r3, .L19+20
	ldr	r2, [r3]
	ldr	r3, .L19+20
	ldrh	r3, [r3, #4]
	movs	r1, r3
	movs	r0, r2
	bl	chip_gpio_set
.L17:
	.loc 1 107 0
	bl	caribou_timer_ticks
	movs	r3, r0
	movs	r4, r1
	ldr	r2, .L19
	str	r3, [r2]
	str	r4, [r2, #4]
.L18:
	.loc 1 109 0
	nop
	mov	sp, r7
	@ sp needed
	pop	{r4, r5, r7, pc}
.L20:
	.align	2
.L19:
	.word	start.6817
	.word	state.6816
	.word	outA
	.word	outB
	.word	outC
	.word	outD
.LFE34:
	.size	board_idle, .-board_idle
	.section	.rodata.str1.4
	.align	2
.LC18:
	.ascii	"button_thread\000"
	.align	2
.LC22:
	.ascii	"led_thread\000"
	.section	.text.main,"ax",%progbits
	.align	2
	.global	main
	.code	16
	.thumb_func
	.type	main, %function
main:
.LFB35:
	.loc 1 112 0
	@ args = 0, pretend = 0, frame = 8
	@ frame_needed = 1, uses_anonymous_args = 0
	push	{r7, lr}
.LCFI8:
	sub	sp, sp, #24
.LCFI9:
	add	r7, sp, #16
.LCFI10:
	str	r0, [r7, #4]
	str	r1, [r7]
	.loc 1 116 0
	movs	r0, #0
	bl	caribou_init
	.loc 1 119 0
	ldr	r2, .L23
	ldr	r3, .L23+4
	movs	r1, #4
	movs	r0, r3
	bl	caribou_queue_init
	.loc 1 122 0
	ldr	r1, .L23+8
	ldr	r0, .L23+12
	movs	r3, #1
	str	r3, [sp, #8]
	movs	r3, #128
	lsls	r3, r3, #3
	str	r3, [sp, #4]
	ldr	r3, .L23+16
	str	r3, [sp]
	movs	r3, #0
	movs	r2, #0
	bl	caribou_thread_create
	.loc 1 123 0
	ldr	r1, .L23+20
	ldr	r0, .L23+24
	movs	r3, #1
	str	r3, [sp, #8]
	movs	r3, #128
	lsls	r3, r3, #3
	str	r3, [sp, #4]
	ldr	r3, .L23+28
	str	r3, [sp]
	movs	r3, #0
	movs	r2, #0
	bl	caribou_thread_create
	.loc 1 130 0
	bl	caribou_exec
	movs	r3, #0
	.loc 1 131 0
	movs	r0, r3
	mov	sp, r7
	add	sp, sp, #8
	@ sp needed
	pop	{r7, pc}
.L24:
	.align	2
.L23:
	.word	queue_msgs
	.word	queue
	.word	button_thread
	.word	.LC18
	.word	button_thread_stack
	.word	led_thread
	.word	.LC22
	.word	led_thread_stack
.LFE35:
	.size	main, .-main
	.section	.bss.start.6817,"aw",%nobits
	.align	3
	.type	start.6817, %object
	.size	start.6817, 8
start.6817:
	.space	8
	.section	.bss.state.6816,"aw",%nobits
	.type	state.6816, %object
	.size	state.6816, 1
state.6816:
	.space	1
	.section	.debug_frame,"",%progbits
.Lframe0:
	.4byte	.LECIE0-.LSCIE0
.LSCIE0:
	.4byte	0xffffffff
	.byte	0x3
	.ascii	"\000"
	.uleb128 0x1
	.sleb128 -4
	.uleb128 0xe
	.byte	0xc
	.uleb128 0xd
	.uleb128 0
	.align	2
.LECIE0:
.LSFDE0:
	.4byte	.LEFDE0-.LASFDE0
.LASFDE0:
	.4byte	.Lframe0
	.4byte	.LFB32
	.4byte	.LFE32-.LFB32
	.byte	0x4
	.4byte	.LCFI0-.LFB32
	.byte	0xe
	.uleb128 0x8
	.byte	0x87
	.uleb128 0x2
	.byte	0x8e
	.uleb128 0x1
	.byte	0x4
	.4byte	.LCFI1-.LCFI0
	.byte	0xe
	.uleb128 0x18
	.byte	0x4
	.4byte	.LCFI2-.LCFI1
	.byte	0xd
	.uleb128 0x7
	.align	2
.LEFDE0:
.LSFDE2:
	.4byte	.LEFDE2-.LASFDE2
.LASFDE2:
	.4byte	.Lframe0
	.4byte	.LFB33
	.4byte	.LFE33-.LFB33
	.byte	0x4
	.4byte	.LCFI3-.LFB33
	.byte	0xe
	.uleb128 0x8
	.byte	0x87
	.uleb128 0x2
	.byte	0x8e
	.uleb128 0x1
	.byte	0x4
	.4byte	.LCFI4-.LCFI3
	.byte	0xe
	.uleb128 0x18
	.byte	0x4
	.4byte	.LCFI5-.LCFI4
	.byte	0xd
	.uleb128 0x7
	.align	2
.LEFDE2:
.LSFDE4:
	.4byte	.LEFDE4-.LASFDE4
.LASFDE4:
	.4byte	.Lframe0
	.4byte	.LFB34
	.4byte	.LFE34-.LFB34
	.byte	0x4
	.4byte	.LCFI6-.LFB34
	.byte	0xe
	.uleb128 0x10
	.byte	0x84
	.uleb128 0x4
	.byte	0x85
	.uleb128 0x3
	.byte	0x87
	.uleb128 0x2
	.byte	0x8e
	.uleb128 0x1
	.byte	0x4
	.4byte	.LCFI7-.LCFI6
	.byte	0xd
	.uleb128 0x7
	.align	2
.LEFDE4:
.LSFDE6:
	.4byte	.LEFDE6-.LASFDE6
.LASFDE6:
	.4byte	.Lframe0
	.4byte	.LFB35
	.4byte	.LFE35-.LFB35
	.byte	0x4
	.4byte	.LCFI8-.LFB35
	.byte	0xe
	.uleb128 0x8
	.byte	0x87
	.uleb128 0x2
	.byte	0x8e
	.uleb128 0x1
	.byte	0x4
	.4byte	.LCFI9-.LCFI8
	.byte	0xe
	.uleb128 0x20
	.byte	0x4
	.4byte	.LCFI10-.LCFI9
	.byte	0xc
	.uleb128 0x7
	.uleb128 0x10
	.align	2
.LEFDE6:
	.text
.Letext0:
	.file 2 "/usr/share/crossworks_for_arm_3.7/include/stdint.h"
	.file 3 "../../../chip/stm32/stm32f091/lib/CMSIS/ST/STM32F0xx/Include/stm32f0xx.h"
	.file 4 "../../../../include/caribou/dev/gpio.h"
	.file 5 "../../../../include/caribou/lib/queue.h"
	.file 6 "../include/board.h"